
test_gemm.out:     file format elf64-x86-64


Disassembly of section .init:

0000000000001000 <_init>:
    1000:	f3 0f 1e fa          	endbr64 
    1004:	48 83 ec 08          	sub    $0x8,%rsp
    1008:	48 8b 05 d9 cf 01 00 	mov    0x1cfd9(%rip),%rax        # 1dfe8 <__gmon_start__>
    100f:	48 85 c0             	test   %rax,%rax
    1012:	74 02                	je     1016 <_init+0x16>
    1014:	ff d0                	callq  *%rax
    1016:	48 83 c4 08          	add    $0x8,%rsp
    101a:	c3                   	retq   

Disassembly of section .plt:

0000000000001020 <.plt>:
    1020:	ff 35 ca ce 01 00    	pushq  0x1ceca(%rip)        # 1def0 <_GLOBAL_OFFSET_TABLE_+0x8>
    1026:	f2 ff 25 cb ce 01 00 	bnd jmpq *0x1cecb(%rip)        # 1def8 <_GLOBAL_OFFSET_TABLE_+0x10>
    102d:	0f 1f 00             	nopl   (%rax)
    1030:	f3 0f 1e fa          	endbr64 
    1034:	68 00 00 00 00       	pushq  $0x0
    1039:	f2 e9 e1 ff ff ff    	bnd jmpq 1020 <.plt>
    103f:	90                   	nop
    1040:	f3 0f 1e fa          	endbr64 
    1044:	68 01 00 00 00       	pushq  $0x1
    1049:	f2 e9 d1 ff ff ff    	bnd jmpq 1020 <.plt>
    104f:	90                   	nop
    1050:	f3 0f 1e fa          	endbr64 
    1054:	68 02 00 00 00       	pushq  $0x2
    1059:	f2 e9 c1 ff ff ff    	bnd jmpq 1020 <.plt>
    105f:	90                   	nop
    1060:	f3 0f 1e fa          	endbr64 
    1064:	68 03 00 00 00       	pushq  $0x3
    1069:	f2 e9 b1 ff ff ff    	bnd jmpq 1020 <.plt>
    106f:	90                   	nop
    1070:	f3 0f 1e fa          	endbr64 
    1074:	68 04 00 00 00       	pushq  $0x4
    1079:	f2 e9 a1 ff ff ff    	bnd jmpq 1020 <.plt>
    107f:	90                   	nop
    1080:	f3 0f 1e fa          	endbr64 
    1084:	68 05 00 00 00       	pushq  $0x5
    1089:	f2 e9 91 ff ff ff    	bnd jmpq 1020 <.plt>
    108f:	90                   	nop
    1090:	f3 0f 1e fa          	endbr64 
    1094:	68 06 00 00 00       	pushq  $0x6
    1099:	f2 e9 81 ff ff ff    	bnd jmpq 1020 <.plt>
    109f:	90                   	nop
    10a0:	f3 0f 1e fa          	endbr64 
    10a4:	68 07 00 00 00       	pushq  $0x7
    10a9:	f2 e9 71 ff ff ff    	bnd jmpq 1020 <.plt>
    10af:	90                   	nop
    10b0:	f3 0f 1e fa          	endbr64 
    10b4:	68 08 00 00 00       	pushq  $0x8
    10b9:	f2 e9 61 ff ff ff    	bnd jmpq 1020 <.plt>
    10bf:	90                   	nop
    10c0:	f3 0f 1e fa          	endbr64 
    10c4:	68 09 00 00 00       	pushq  $0x9
    10c9:	f2 e9 51 ff ff ff    	bnd jmpq 1020 <.plt>
    10cf:	90                   	nop
    10d0:	f3 0f 1e fa          	endbr64 
    10d4:	68 0a 00 00 00       	pushq  $0xa
    10d9:	f2 e9 41 ff ff ff    	bnd jmpq 1020 <.plt>
    10df:	90                   	nop
    10e0:	f3 0f 1e fa          	endbr64 
    10e4:	68 0b 00 00 00       	pushq  $0xb
    10e9:	f2 e9 31 ff ff ff    	bnd jmpq 1020 <.plt>
    10ef:	90                   	nop
    10f0:	f3 0f 1e fa          	endbr64 
    10f4:	68 0c 00 00 00       	pushq  $0xc
    10f9:	f2 e9 21 ff ff ff    	bnd jmpq 1020 <.plt>
    10ff:	90                   	nop
    1100:	f3 0f 1e fa          	endbr64 
    1104:	68 0d 00 00 00       	pushq  $0xd
    1109:	f2 e9 11 ff ff ff    	bnd jmpq 1020 <.plt>
    110f:	90                   	nop
    1110:	f3 0f 1e fa          	endbr64 
    1114:	68 0e 00 00 00       	pushq  $0xe
    1119:	f2 e9 01 ff ff ff    	bnd jmpq 1020 <.plt>
    111f:	90                   	nop
    1120:	f3 0f 1e fa          	endbr64 
    1124:	68 0f 00 00 00       	pushq  $0xf
    1129:	f2 e9 f1 fe ff ff    	bnd jmpq 1020 <.plt>
    112f:	90                   	nop
    1130:	f3 0f 1e fa          	endbr64 
    1134:	68 10 00 00 00       	pushq  $0x10
    1139:	f2 e9 e1 fe ff ff    	bnd jmpq 1020 <.plt>
    113f:	90                   	nop
    1140:	f3 0f 1e fa          	endbr64 
    1144:	68 11 00 00 00       	pushq  $0x11
    1149:	f2 e9 d1 fe ff ff    	bnd jmpq 1020 <.plt>
    114f:	90                   	nop
    1150:	f3 0f 1e fa          	endbr64 
    1154:	68 12 00 00 00       	pushq  $0x12
    1159:	f2 e9 c1 fe ff ff    	bnd jmpq 1020 <.plt>
    115f:	90                   	nop
    1160:	f3 0f 1e fa          	endbr64 
    1164:	68 13 00 00 00       	pushq  $0x13
    1169:	f2 e9 b1 fe ff ff    	bnd jmpq 1020 <.plt>
    116f:	90                   	nop
    1170:	f3 0f 1e fa          	endbr64 
    1174:	68 14 00 00 00       	pushq  $0x14
    1179:	f2 e9 a1 fe ff ff    	bnd jmpq 1020 <.plt>
    117f:	90                   	nop
    1180:	f3 0f 1e fa          	endbr64 
    1184:	68 15 00 00 00       	pushq  $0x15
    1189:	f2 e9 91 fe ff ff    	bnd jmpq 1020 <.plt>
    118f:	90                   	nop
    1190:	f3 0f 1e fa          	endbr64 
    1194:	68 16 00 00 00       	pushq  $0x16
    1199:	f2 e9 81 fe ff ff    	bnd jmpq 1020 <.plt>
    119f:	90                   	nop
    11a0:	f3 0f 1e fa          	endbr64 
    11a4:	68 17 00 00 00       	pushq  $0x17
    11a9:	f2 e9 71 fe ff ff    	bnd jmpq 1020 <.plt>
    11af:	90                   	nop
    11b0:	f3 0f 1e fa          	endbr64 
    11b4:	68 18 00 00 00       	pushq  $0x18
    11b9:	f2 e9 61 fe ff ff    	bnd jmpq 1020 <.plt>
    11bf:	90                   	nop
    11c0:	f3 0f 1e fa          	endbr64 
    11c4:	68 19 00 00 00       	pushq  $0x19
    11c9:	f2 e9 51 fe ff ff    	bnd jmpq 1020 <.plt>
    11cf:	90                   	nop
    11d0:	f3 0f 1e fa          	endbr64 
    11d4:	68 1a 00 00 00       	pushq  $0x1a
    11d9:	f2 e9 41 fe ff ff    	bnd jmpq 1020 <.plt>
    11df:	90                   	nop

Disassembly of section .plt.got:

00000000000011e0 <__cxa_finalize@plt>:
    11e0:	f3 0f 1e fa          	endbr64 
    11e4:	f2 ff 25 0d ce 01 00 	bnd jmpq *0x1ce0d(%rip)        # 1dff8 <__cxa_finalize@GLIBC_2.2.5>
    11eb:	0f 1f 44 00 00       	nopl   0x0(%rax,%rax,1)

Disassembly of section .plt.sec:

00000000000011f0 <getenv@plt>:
    11f0:	f3 0f 1e fa          	endbr64 
    11f4:	f2 ff 25 05 cd 01 00 	bnd jmpq *0x1cd05(%rip)        # 1df00 <getenv@GLIBC_2.2.5>
    11fb:	0f 1f 44 00 00       	nopl   0x0(%rax,%rax,1)

0000000000001200 <round@plt>:
    1200:	f3 0f 1e fa          	endbr64 
    1204:	f2 ff 25 fd cc 01 00 	bnd jmpq *0x1ccfd(%rip)        # 1df08 <round@GLIBC_2.2.5>
    120b:	0f 1f 44 00 00       	nopl   0x0(%rax,%rax,1)

0000000000001210 <puts@plt>:
    1210:	f3 0f 1e fa          	endbr64 
    1214:	f2 ff 25 f5 cc 01 00 	bnd jmpq *0x1ccf5(%rip)        # 1df10 <puts@GLIBC_2.2.5>
    121b:	0f 1f 44 00 00       	nopl   0x0(%rax,%rax,1)

0000000000001220 <bli_randm@plt>:
    1220:	f3 0f 1e fa          	endbr64 
    1224:	f2 ff 25 ed cc 01 00 	bnd jmpq *0x1cced(%rip)        # 1df18 <bli_randm>
    122b:	0f 1f 44 00 00       	nopl   0x0(%rax,%rax,1)

0000000000001230 <bli_thrcomm_barrier@plt>:
    1230:	f3 0f 1e fa          	endbr64 
    1234:	f2 ff 25 e5 cc 01 00 	bnd jmpq *0x1cce5(%rip)        # 1df20 <bli_thrcomm_barrier>
    123b:	0f 1f 44 00 00       	nopl   0x0(%rax,%rax,1)

0000000000001240 <dgemm_@plt>:
    1240:	f3 0f 1e fa          	endbr64 
    1244:	f2 ff 25 dd cc 01 00 	bnd jmpq *0x1ccdd(%rip)        # 1df28 <dgemm_>
    124b:	0f 1f 44 00 00       	nopl   0x0(%rax,%rax,1)

0000000000001250 <__stack_chk_fail@plt>:
    1250:	f3 0f 1e fa          	endbr64 
    1254:	f2 ff 25 d5 cc 01 00 	bnd jmpq *0x1ccd5(%rip)        # 1df30 <__stack_chk_fail@GLIBC_2.4>
    125b:	0f 1f 44 00 00       	nopl   0x0(%rax,%rax,1)

0000000000001260 <printf@plt>:
    1260:	f3 0f 1e fa          	endbr64 
    1264:	f2 ff 25 cd cc 01 00 	bnd jmpq *0x1cccd(%rip)        # 1df38 <printf@GLIBC_2.2.5>
    126b:	0f 1f 44 00 00       	nopl   0x0(%rax,%rax,1)

0000000000001270 <bli_obj_free@plt>:
    1270:	f3 0f 1e fa          	endbr64 
    1274:	f2 ff 25 c5 cc 01 00 	bnd jmpq *0x1ccc5(%rip)        # 1df40 <bli_obj_free>
    127b:	0f 1f 44 00 00       	nopl   0x0(%rax,%rax,1)

0000000000001280 <bli_abort@plt>:
    1280:	f3 0f 1e fa          	endbr64 
    1284:	f2 ff 25 bd cc 01 00 	bnd jmpq *0x1ccbd(%rip)        # 1df48 <bli_abort>
    128b:	0f 1f 44 00 00       	nopl   0x0(%rax,%rax,1)

0000000000001290 <cgemm_@plt>:
    1290:	f3 0f 1e fa          	endbr64 
    1294:	f2 ff 25 b5 cc 01 00 	bnd jmpq *0x1ccb5(%rip)        # 1df50 <cgemm_>
    129b:	0f 1f 44 00 00       	nopl   0x0(%rax,%rax,1)

00000000000012a0 <bli_thread_range_sub@plt>:
    12a0:	f3 0f 1e fa          	endbr64 
    12a4:	f2 ff 25 ad cc 01 00 	bnd jmpq *0x1ccad(%rip)        # 1df58 <bli_thread_range_sub>
    12ab:	0f 1f 44 00 00       	nopl   0x0(%rax,%rax,1)

00000000000012b0 <bli_obj_imag_is_zero@plt>:
    12b0:	f3 0f 1e fa          	endbr64 
    12b4:	f2 ff 25 a5 cc 01 00 	bnd jmpq *0x1cca5(%rip)        # 1df60 <bli_obj_imag_is_zero>
    12bb:	0f 1f 44 00 00       	nopl   0x0(%rax,%rax,1)

00000000000012c0 <bli_pthread_mutex_init@plt>:
    12c0:	f3 0f 1e fa          	endbr64 
    12c4:	f2 ff 25 9d cc 01 00 	bnd jmpq *0x1cc9d(%rip)        # 1df68 <bli_pthread_mutex_init>
    12cb:	0f 1f 44 00 00       	nopl   0x0(%rax,%rax,1)

00000000000012d0 <bli_clock_min_diff@plt>:
    12d0:	f3 0f 1e fa          	endbr64 
    12d4:	f2 ff 25 95 cc 01 00 	bnd jmpq *0x1cc95(%rip)        # 1df70 <bli_clock_min_diff>
    12db:	0f 1f 44 00 00       	nopl   0x0(%rax,%rax,1)

00000000000012e0 <bli_copym@plt>:
    12e0:	f3 0f 1e fa          	endbr64 
    12e4:	f2 ff 25 8d cc 01 00 	bnd jmpq *0x1cc8d(%rip)        # 1df78 <bli_copym>
    12eb:	0f 1f 44 00 00       	nopl   0x0(%rax,%rax,1)

00000000000012f0 <bli_pthread_mutex_lock@plt>:
    12f0:	f3 0f 1e fa          	endbr64 
    12f4:	f2 ff 25 85 cc 01 00 	bnd jmpq *0x1cc85(%rip)        # 1df80 <bli_pthread_mutex_lock>
    12fb:	0f 1f 44 00 00       	nopl   0x0(%rax,%rax,1)

0000000000001300 <bli_thrcomm_bcast@plt>:
    1300:	f3 0f 1e fa          	endbr64 
    1304:	f2 ff 25 7d cc 01 00 	bnd jmpq *0x1cc7d(%rip)        # 1df88 <bli_thrcomm_bcast>
    130b:	0f 1f 44 00 00       	nopl   0x0(%rax,%rax,1)

0000000000001310 <bli_obj_scalar_detach@plt>:
    1310:	f3 0f 1e fa          	endbr64 
    1314:	f2 ff 25 75 cc 01 00 	bnd jmpq *0x1cc75(%rip)        # 1df90 <bli_obj_scalar_detach>
    131b:	0f 1f 44 00 00       	nopl   0x0(%rax,%rax,1)

0000000000001320 <bli_pthread_mutex_unlock@plt>:
    1320:	f3 0f 1e fa          	endbr64 
    1324:	f2 ff 25 6d cc 01 00 	bnd jmpq *0x1cc6d(%rip)        # 1df98 <bli_pthread_mutex_unlock>
    132b:	0f 1f 44 00 00       	nopl   0x0(%rax,%rax,1)

0000000000001330 <sgemm_@plt>:
    1330:	f3 0f 1e fa          	endbr64 
    1334:	f2 ff 25 65 cc 01 00 	bnd jmpq *0x1cc65(%rip)        # 1dfa0 <sgemm_>
    133b:	0f 1f 44 00 00       	nopl   0x0(%rax,%rax,1)

0000000000001340 <bli_obj_create@plt>:
    1340:	f3 0f 1e fa          	endbr64 
    1344:	f2 ff 25 5d cc 01 00 	bnd jmpq *0x1cc5d(%rip)        # 1dfa8 <bli_obj_create>
    134b:	0f 1f 44 00 00       	nopl   0x0(%rax,%rax,1)

0000000000001350 <bli_param_map_blis_to_netlib_trans@plt>:
    1350:	f3 0f 1e fa          	endbr64 
    1354:	f2 ff 25 55 cc 01 00 	bnd jmpq *0x1cc55(%rip)        # 1dfb0 <bli_param_map_blis_to_netlib_trans>
    135b:	0f 1f 44 00 00       	nopl   0x0(%rax,%rax,1)

0000000000001360 <bli_setsc@plt>:
    1360:	f3 0f 1e fa          	endbr64 
    1364:	f2 ff 25 4d cc 01 00 	bnd jmpq *0x1cc4d(%rip)        # 1dfb8 <bli_setsc>
    136b:	0f 1f 44 00 00       	nopl   0x0(%rax,%rax,1)

0000000000001370 <bli_pthread_mutex_destroy@plt>:
    1370:	f3 0f 1e fa          	endbr64 
    1374:	f2 ff 25 45 cc 01 00 	bnd jmpq *0x1cc45(%rip)        # 1dfc0 <bli_pthread_mutex_destroy>
    137b:	0f 1f 44 00 00       	nopl   0x0(%rax,%rax,1)

0000000000001380 <bli_clock@plt>:
    1380:	f3 0f 1e fa          	endbr64 
    1384:	f2 ff 25 3d cc 01 00 	bnd jmpq *0x1cc3d(%rip)        # 1dfc8 <bli_clock>
    138b:	0f 1f 44 00 00       	nopl   0x0(%rax,%rax,1)

0000000000001390 <zgemm_@plt>:
    1390:	f3 0f 1e fa          	endbr64 
    1394:	f2 ff 25 35 cc 01 00 	bnd jmpq *0x1cc35(%rip)        # 1dfd0 <zgemm_>
    139b:	0f 1f 44 00 00       	nopl   0x0(%rax,%rax,1)

Disassembly of section .text:

00000000000013a0 <_start>:
    13a0:	f3 0f 1e fa          	endbr64 
    13a4:	31 ed                	xor    %ebp,%ebp
    13a6:	49 89 d1             	mov    %rdx,%r9
    13a9:	5e                   	pop    %rsi
    13aa:	48 89 e2             	mov    %rsp,%rdx
    13ad:	48 83 e4 f0          	and    $0xfffffffffffffff0,%rsp
    13b1:	50                   	push   %rax
    13b2:	54                   	push   %rsp
    13b3:	4c 8d 05 e6 38 01 00 	lea    0x138e6(%rip),%r8        # 14ca0 <__libc_csu_fini>
    13ba:	48 8d 0d 6f 38 01 00 	lea    0x1386f(%rip),%rcx        # 14c30 <__libc_csu_init>
    13c1:	48 8d 3d d4 2c 01 00 	lea    0x12cd4(%rip),%rdi        # 1409c <main>
    13c8:	ff 15 12 cc 01 00    	callq  *0x1cc12(%rip)        # 1dfe0 <__libc_start_main@GLIBC_2.2.5>
    13ce:	f4                   	hlt    
    13cf:	90                   	nop

00000000000013d0 <deregister_tm_clones>:
    13d0:	48 8d 3d 39 cc 01 00 	lea    0x1cc39(%rip),%rdi        # 1e010 <__TMC_END__>
    13d7:	48 8d 05 32 cc 01 00 	lea    0x1cc32(%rip),%rax        # 1e010 <__TMC_END__>
    13de:	48 39 f8             	cmp    %rdi,%rax
    13e1:	74 15                	je     13f8 <deregister_tm_clones+0x28>
    13e3:	48 8b 05 ee cb 01 00 	mov    0x1cbee(%rip),%rax        # 1dfd8 <_ITM_deregisterTMCloneTable>
    13ea:	48 85 c0             	test   %rax,%rax
    13ed:	74 09                	je     13f8 <deregister_tm_clones+0x28>
    13ef:	ff e0                	jmpq   *%rax
    13f1:	0f 1f 80 00 00 00 00 	nopl   0x0(%rax)
    13f8:	c3                   	retq   
    13f9:	0f 1f 80 00 00 00 00 	nopl   0x0(%rax)

0000000000001400 <register_tm_clones>:
    1400:	48 8d 3d 09 cc 01 00 	lea    0x1cc09(%rip),%rdi        # 1e010 <__TMC_END__>
    1407:	48 8d 35 02 cc 01 00 	lea    0x1cc02(%rip),%rsi        # 1e010 <__TMC_END__>
    140e:	48 29 fe             	sub    %rdi,%rsi
    1411:	48 89 f0             	mov    %rsi,%rax
    1414:	48 c1 ee 3f          	shr    $0x3f,%rsi
    1418:	48 c1 f8 03          	sar    $0x3,%rax
    141c:	48 01 c6             	add    %rax,%rsi
    141f:	48 d1 fe             	sar    %rsi
    1422:	74 14                	je     1438 <register_tm_clones+0x38>
    1424:	48 8b 05 c5 cb 01 00 	mov    0x1cbc5(%rip),%rax        # 1dff0 <_ITM_registerTMCloneTable>
    142b:	48 85 c0             	test   %rax,%rax
    142e:	74 08                	je     1438 <register_tm_clones+0x38>
    1430:	ff e0                	jmpq   *%rax
    1432:	66 0f 1f 44 00 00    	nopw   0x0(%rax,%rax,1)
    1438:	c3                   	retq   
    1439:	0f 1f 80 00 00 00 00 	nopl   0x0(%rax)

0000000000001440 <__do_global_dtors_aux>:
    1440:	f3 0f 1e fa          	endbr64 
    1444:	80 3d c5 cb 01 00 00 	cmpb   $0x0,0x1cbc5(%rip)        # 1e010 <__TMC_END__>
    144b:	75 2b                	jne    1478 <__do_global_dtors_aux+0x38>
    144d:	55                   	push   %rbp
    144e:	48 83 3d a2 cb 01 00 	cmpq   $0x0,0x1cba2(%rip)        # 1dff8 <__cxa_finalize@GLIBC_2.2.5>
    1455:	00 
    1456:	48 89 e5             	mov    %rsp,%rbp
    1459:	74 0c                	je     1467 <__do_global_dtors_aux+0x27>
    145b:	48 8b 3d a6 cb 01 00 	mov    0x1cba6(%rip),%rdi        # 1e008 <__dso_handle>
    1462:	e8 79 fd ff ff       	callq  11e0 <__cxa_finalize@plt>
    1467:	e8 64 ff ff ff       	callq  13d0 <deregister_tm_clones>
    146c:	c6 05 9d cb 01 00 01 	movb   $0x1,0x1cb9d(%rip)        # 1e010 <__TMC_END__>
    1473:	5d                   	pop    %rbp
    1474:	c3                   	retq   
    1475:	0f 1f 00             	nopl   (%rax)
    1478:	c3                   	retq   
    1479:	0f 1f 80 00 00 00 00 	nopl   0x0(%rax)

0000000000001480 <frame_dummy>:
    1480:	f3 0f 1e fa          	endbr64 
    1484:	e9 77 ff ff ff       	jmpq   1400 <register_tm_clones>

0000000000001489 <bli_obj_init_full_shallow_copy_of>:
    1489:	f3 0f 1e fa          	endbr64 
    148d:	55                   	push   %rbp
    148e:	48 89 e5             	mov    %rsp,%rbp
    1491:	48 89 7d f8          	mov    %rdi,-0x8(%rbp)
    1495:	48 89 75 f0          	mov    %rsi,-0x10(%rbp)
    1499:	48 8b 45 f8          	mov    -0x8(%rbp),%rax
    149d:	48 8b 10             	mov    (%rax),%rdx
    14a0:	48 8b 45 f0          	mov    -0x10(%rbp),%rax
    14a4:	48 89 10             	mov    %rdx,(%rax)
    14a7:	48 8b 45 f8          	mov    -0x8(%rbp),%rax
    14ab:	48 8b 50 08          	mov    0x8(%rax),%rdx
    14af:	48 8b 45 f0          	mov    -0x10(%rbp),%rax
    14b3:	48 89 50 08          	mov    %rdx,0x8(%rax)
    14b7:	48 8b 45 f8          	mov    -0x8(%rbp),%rax
    14bb:	48 8b 50 10          	mov    0x10(%rax),%rdx
    14bf:	48 8b 45 f0          	mov    -0x10(%rbp),%rax
    14c3:	48 89 50 10          	mov    %rdx,0x10(%rax)
    14c7:	48 8b 45 f8          	mov    -0x8(%rbp),%rax
    14cb:	48 8b 50 18          	mov    0x18(%rax),%rdx
    14cf:	48 8b 45 f0          	mov    -0x10(%rbp),%rax
    14d3:	48 89 50 18          	mov    %rdx,0x18(%rax)
    14d7:	48 8b 45 f8          	mov    -0x8(%rbp),%rax
    14db:	48 8b 50 20          	mov    0x20(%rax),%rdx
    14df:	48 8b 45 f0          	mov    -0x10(%rbp),%rax
    14e3:	48 89 50 20          	mov    %rdx,0x20(%rax)
    14e7:	48 8b 45 f8          	mov    -0x8(%rbp),%rax
    14eb:	48 8b 50 28          	mov    0x28(%rax),%rdx
    14ef:	48 8b 45 f0          	mov    -0x10(%rbp),%rax
    14f3:	48 89 50 28          	mov    %rdx,0x28(%rax)
    14f7:	48 8b 45 f8          	mov    -0x8(%rbp),%rax
    14fb:	8b 50 30             	mov    0x30(%rax),%edx
    14fe:	48 8b 45 f0          	mov    -0x10(%rbp),%rax
    1502:	89 50 30             	mov    %edx,0x30(%rax)
    1505:	48 8b 45 f8          	mov    -0x8(%rbp),%rax
    1509:	8b 50 34             	mov    0x34(%rax),%edx
    150c:	48 8b 45 f0          	mov    -0x10(%rbp),%rax
    1510:	89 50 34             	mov    %edx,0x34(%rax)
    1513:	48 8b 45 f8          	mov    -0x8(%rbp),%rax
    1517:	48 8b 50 38          	mov    0x38(%rax),%rdx
    151b:	48 8b 45 f0          	mov    -0x10(%rbp),%rax
    151f:	48 89 50 38          	mov    %rdx,0x38(%rax)
    1523:	48 8b 45 f8          	mov    -0x8(%rbp),%rax
    1527:	48 8b 50 40          	mov    0x40(%rax),%rdx
    152b:	48 8b 45 f0          	mov    -0x10(%rbp),%rax
    152f:	48 89 50 40          	mov    %rdx,0x40(%rax)
    1533:	48 8b 45 f8          	mov    -0x8(%rbp),%rax
    1537:	48 8b 50 48          	mov    0x48(%rax),%rdx
    153b:	48 8b 45 f0          	mov    -0x10(%rbp),%rax
    153f:	48 89 50 48          	mov    %rdx,0x48(%rax)
    1543:	48 8b 45 f8          	mov    -0x8(%rbp),%rax
    1547:	48 8b 50 50          	mov    0x50(%rax),%rdx
    154b:	48 8b 45 f0          	mov    -0x10(%rbp),%rax
    154f:	48 89 50 50          	mov    %rdx,0x50(%rax)
    1553:	48 8b 45 f8          	mov    -0x8(%rbp),%rax
    1557:	48 8b 50 58          	mov    0x58(%rax),%rdx
    155b:	48 8b 45 f0          	mov    -0x10(%rbp),%rax
    155f:	48 89 50 58          	mov    %rdx,0x58(%rax)
    1563:	48 8b 4d f0          	mov    -0x10(%rbp),%rcx
    1567:	48 8b 45 f8          	mov    -0x8(%rbp),%rax
    156b:	48 8b 50 68          	mov    0x68(%rax),%rdx
    156f:	48 8b 40 60          	mov    0x60(%rax),%rax
    1573:	48 89 41 60          	mov    %rax,0x60(%rcx)
    1577:	48 89 51 68          	mov    %rdx,0x68(%rcx)
    157b:	48 8b 45 f8          	mov    -0x8(%rbp),%rax
    157f:	48 8b 50 70          	mov    0x70(%rax),%rdx
    1583:	48 8b 45 f0          	mov    -0x10(%rbp),%rax
    1587:	48 89 50 70          	mov    %rdx,0x70(%rax)
    158b:	48 8b 45 f8          	mov    -0x8(%rbp),%rax
    158f:	48 8b 50 78          	mov    0x78(%rax),%rdx
    1593:	48 8b 45 f0          	mov    -0x10(%rbp),%rax
    1597:	48 89 50 78          	mov    %rdx,0x78(%rax)
    159b:	48 8b 45 f8          	mov    -0x8(%rbp),%rax
    159f:	48 8b 90 80 00 00 00 	mov    0x80(%rax),%rdx
    15a6:	48 8b 45 f0          	mov    -0x10(%rbp),%rax
    15aa:	48 89 90 80 00 00 00 	mov    %rdx,0x80(%rax)
    15b1:	48 8b 45 f8          	mov    -0x8(%rbp),%rax
    15b5:	48 8b 90 88 00 00 00 	mov    0x88(%rax),%rdx
    15bc:	48 8b 45 f0          	mov    -0x10(%rbp),%rax
    15c0:	48 89 90 88 00 00 00 	mov    %rdx,0x88(%rax)
    15c7:	48 8b 45 f8          	mov    -0x8(%rbp),%rax
    15cb:	48 8b 90 90 00 00 00 	mov    0x90(%rax),%rdx
    15d2:	48 8b 45 f0          	mov    -0x10(%rbp),%rax
    15d6:	48 89 90 90 00 00 00 	mov    %rdx,0x90(%rax)
    15dd:	48 8b 45 f8          	mov    -0x8(%rbp),%rax
    15e1:	48 8b 90 98 00 00 00 	mov    0x98(%rax),%rdx
    15e8:	48 8b 45 f0          	mov    -0x10(%rbp),%rax
    15ec:	48 89 90 98 00 00 00 	mov    %rdx,0x98(%rax)
    15f3:	90                   	nop
    15f4:	5d                   	pop    %rbp
    15f5:	c3                   	retq   

00000000000015f6 <bli_obj_init_subpart_from>:
    15f6:	f3 0f 1e fa          	endbr64 
    15fa:	55                   	push   %rbp
    15fb:	48 89 e5             	mov    %rsp,%rbp
    15fe:	48 89 7d f8          	mov    %rdi,-0x8(%rbp)
    1602:	48 89 75 f0          	mov    %rsi,-0x10(%rbp)
    1606:	48 8b 45 f8          	mov    -0x8(%rbp),%rax
    160a:	48 8b 10             	mov    (%rax),%rdx
    160d:	48 8b 45 f0          	mov    -0x10(%rbp),%rax
    1611:	48 89 10             	mov    %rdx,(%rax)
    1614:	48 8b 45 f8          	mov    -0x8(%rbp),%rax
    1618:	48 8b 50 08          	mov    0x8(%rax),%rdx
    161c:	48 8b 45 f0          	mov    -0x10(%rbp),%rax
    1620:	48 89 50 08          	mov    %rdx,0x8(%rax)
    1624:	48 8b 45 f8          	mov    -0x8(%rbp),%rax
    1628:	48 8b 50 10          	mov    0x10(%rax),%rdx
    162c:	48 8b 45 f0          	mov    -0x10(%rbp),%rax
    1630:	48 89 50 10          	mov    %rdx,0x10(%rax)
    1634:	48 8b 45 f8          	mov    -0x8(%rbp),%rax
    1638:	48 8b 50 28          	mov    0x28(%rax),%rdx
    163c:	48 8b 45 f0          	mov    -0x10(%rbp),%rax
    1640:	48 89 50 28          	mov    %rdx,0x28(%rax)
    1644:	48 8b 45 f8          	mov    -0x8(%rbp),%rax
    1648:	8b 50 30             	mov    0x30(%rax),%edx
    164b:	48 8b 45 f0          	mov    -0x10(%rbp),%rax
    164f:	89 50 30             	mov    %edx,0x30(%rax)
    1652:	48 8b 45 f8          	mov    -0x8(%rbp),%rax
    1656:	8b 50 34             	mov    0x34(%rax),%edx
    1659:	48 8b 45 f0          	mov    -0x10(%rbp),%rax
    165d:	89 50 34             	mov    %edx,0x34(%rax)
    1660:	48 8b 45 f8          	mov    -0x8(%rbp),%rax
    1664:	48 8b 50 38          	mov    0x38(%rax),%rdx
    1668:	48 8b 45 f0          	mov    -0x10(%rbp),%rax
    166c:	48 89 50 38          	mov    %rdx,0x38(%rax)
    1670:	48 8b 45 f8          	mov    -0x8(%rbp),%rax
    1674:	48 8b 50 40          	mov    0x40(%rax),%rdx
    1678:	48 8b 45 f0          	mov    -0x10(%rbp),%rax
    167c:	48 89 50 40          	mov    %rdx,0x40(%rax)
    1680:	48 8b 45 f8          	mov    -0x8(%rbp),%rax
    1684:	48 8b 50 48          	mov    0x48(%rax),%rdx
    1688:	48 8b 45 f0          	mov    -0x10(%rbp),%rax
    168c:	48 89 50 48          	mov    %rdx,0x48(%rax)
    1690:	48 8b 45 f8          	mov    -0x8(%rbp),%rax
    1694:	48 8b 50 50          	mov    0x50(%rax),%rdx
    1698:	48 8b 45 f0          	mov    -0x10(%rbp),%rax
    169c:	48 89 50 50          	mov    %rdx,0x50(%rax)
    16a0:	48 8b 45 f8          	mov    -0x8(%rbp),%rax
    16a4:	48 8b 50 58          	mov    0x58(%rax),%rdx
    16a8:	48 8b 45 f0          	mov    -0x10(%rbp),%rax
    16ac:	48 89 50 58          	mov    %rdx,0x58(%rax)
    16b0:	48 8b 4d f0          	mov    -0x10(%rbp),%rcx
    16b4:	48 8b 45 f8          	mov    -0x8(%rbp),%rax
    16b8:	48 8b 50 68          	mov    0x68(%rax),%rdx
    16bc:	48 8b 40 60          	mov    0x60(%rax),%rax
    16c0:	48 89 41 60          	mov    %rax,0x60(%rcx)
    16c4:	48 89 51 68          	mov    %rdx,0x68(%rcx)
    16c8:	48 8b 45 f8          	mov    -0x8(%rbp),%rax
    16cc:	48 8b 50 70          	mov    0x70(%rax),%rdx
    16d0:	48 8b 45 f0          	mov    -0x10(%rbp),%rax
    16d4:	48 89 50 70          	mov    %rdx,0x70(%rax)
    16d8:	48 8b 45 f8          	mov    -0x8(%rbp),%rax
    16dc:	48 8b 50 78          	mov    0x78(%rax),%rdx
    16e0:	48 8b 45 f0          	mov    -0x10(%rbp),%rax
    16e4:	48 89 50 78          	mov    %rdx,0x78(%rax)
    16e8:	48 8b 45 f8          	mov    -0x8(%rbp),%rax
    16ec:	48 8b 90 80 00 00 00 	mov    0x80(%rax),%rdx
    16f3:	48 8b 45 f0          	mov    -0x10(%rbp),%rax
    16f7:	48 89 90 80 00 00 00 	mov    %rdx,0x80(%rax)
    16fe:	48 8b 45 f8          	mov    -0x8(%rbp),%rax
    1702:	48 8b 90 88 00 00 00 	mov    0x88(%rax),%rdx
    1709:	48 8b 45 f0          	mov    -0x10(%rbp),%rax
    170d:	48 89 90 88 00 00 00 	mov    %rdx,0x88(%rax)
    1714:	48 8b 45 f8          	mov    -0x8(%rbp),%rax
    1718:	48 8b 90 90 00 00 00 	mov    0x90(%rax),%rdx
    171f:	48 8b 45 f0          	mov    -0x10(%rbp),%rax
    1723:	48 89 90 90 00 00 00 	mov    %rdx,0x90(%rax)
    172a:	48 8b 45 f8          	mov    -0x8(%rbp),%rax
    172e:	48 8b 90 98 00 00 00 	mov    0x98(%rax),%rdx
    1735:	48 8b 45 f0          	mov    -0x10(%rbp),%rax
    1739:	48 89 90 98 00 00 00 	mov    %rdx,0x98(%rax)
    1740:	90                   	nop
    1741:	5d                   	pop    %rbp
    1742:	c3                   	retq   

0000000000001743 <bli_round>:
    1743:	f3 0f 1e fa          	endbr64 
    1747:	55                   	push   %rbp
    1748:	48 89 e5             	mov    %rsp,%rbp
    174b:	48 83 ec 10          	sub    $0x10,%rsp
    174f:	f2 0f 11 45 f8       	movsd  %xmm0,-0x8(%rbp)
    1754:	48 8b 45 f8          	mov    -0x8(%rbp),%rax
    1758:	66 48 0f 6e c0       	movq   %rax,%xmm0
    175d:	e8 9e fa ff ff       	callq  1200 <round@plt>
    1762:	c9                   	leaveq 
    1763:	c3                   	retq   

0000000000001764 <bli_round_to_mult>:
    1764:	f3 0f 1e fa          	endbr64 
    1768:	55                   	push   %rbp
    1769:	48 89 e5             	mov    %rsp,%rbp
    176c:	48 89 7d f8          	mov    %rdi,-0x8(%rbp)
    1770:	48 89 75 f0          	mov    %rsi,-0x10(%rbp)
    1774:	48 8b 45 f0          	mov    -0x10(%rbp),%rax
    1778:	48 d1 e8             	shr    %rax
    177b:	48 89 c2             	mov    %rax,%rdx
    177e:	48 8b 45 f8          	mov    -0x8(%rbp),%rax
    1782:	48 01 d0             	add    %rdx,%rax
    1785:	ba 00 00 00 00       	mov    $0x0,%edx
    178a:	48 f7 75 f0          	divq   -0x10(%rbp)
    178e:	48 0f af 45 f0       	imul   -0x10(%rbp),%rax
    1793:	5d                   	pop    %rbp
    1794:	c3                   	retq   

0000000000001795 <bli_is_odd>:
    1795:	f3 0f 1e fa          	endbr64 
    1799:	55                   	push   %rbp
    179a:	48 89 e5             	mov    %rsp,%rbp
    179d:	48 89 7d f8          	mov    %rdi,-0x8(%rbp)
    17a1:	48 8b 45 f8          	mov    -0x8(%rbp),%rax
    17a5:	48 99                	cqto   
    17a7:	48 c1 ea 3f          	shr    $0x3f,%rdx
    17ab:	48 01 d0             	add    %rdx,%rax
    17ae:	83 e0 01             	and    $0x1,%eax
    17b1:	48 29 d0             	sub    %rdx,%rax
    17b4:	48 83 f8 01          	cmp    $0x1,%rax
    17b8:	0f 94 c0             	sete   %al
    17bb:	5d                   	pop    %rbp
    17bc:	c3                   	retq   

00000000000017bd <bli_is_even>:
    17bd:	f3 0f 1e fa          	endbr64 
    17c1:	55                   	push   %rbp
    17c2:	48 89 e5             	mov    %rsp,%rbp
    17c5:	48 89 7d f8          	mov    %rdi,-0x8(%rbp)
    17c9:	48 8b 45 f8          	mov    -0x8(%rbp),%rax
    17cd:	83 e0 01             	and    $0x1,%eax
    17d0:	48 85 c0             	test   %rax,%rax
    17d3:	0f 94 c0             	sete   %al
    17d6:	5d                   	pop    %rbp
    17d7:	c3                   	retq   

00000000000017d8 <bli_swap_dims>:
    17d8:	f3 0f 1e fa          	endbr64 
    17dc:	55                   	push   %rbp
    17dd:	48 89 e5             	mov    %rsp,%rbp
    17e0:	48 89 7d e8          	mov    %rdi,-0x18(%rbp)
    17e4:	48 89 75 e0          	mov    %rsi,-0x20(%rbp)
    17e8:	48 8b 45 e8          	mov    -0x18(%rbp),%rax
    17ec:	48 8b 00             	mov    (%rax),%rax
    17ef:	48 89 45 f8          	mov    %rax,-0x8(%rbp)
    17f3:	48 8b 45 e0          	mov    -0x20(%rbp),%rax
    17f7:	48 8b 10             	mov    (%rax),%rdx
    17fa:	48 8b 45 e8          	mov    -0x18(%rbp),%rax
    17fe:	48 89 10             	mov    %rdx,(%rax)
    1801:	48 8b 45 e0          	mov    -0x20(%rbp),%rax
    1805:	48 8b 55 f8          	mov    -0x8(%rbp),%rdx
    1809:	48 89 10             	mov    %rdx,(%rax)
    180c:	90                   	nop
    180d:	5d                   	pop    %rbp
    180e:	c3                   	retq   

000000000000180f <bli_swap_incs>:
    180f:	f3 0f 1e fa          	endbr64 
    1813:	55                   	push   %rbp
    1814:	48 89 e5             	mov    %rsp,%rbp
    1817:	48 89 7d e8          	mov    %rdi,-0x18(%rbp)
    181b:	48 89 75 e0          	mov    %rsi,-0x20(%rbp)
    181f:	48 8b 45 e8          	mov    -0x18(%rbp),%rax
    1823:	48 8b 00             	mov    (%rax),%rax
    1826:	48 89 45 f8          	mov    %rax,-0x8(%rbp)
    182a:	48 8b 45 e0          	mov    -0x20(%rbp),%rax
    182e:	48 8b 10             	mov    (%rax),%rdx
    1831:	48 8b 45 e8          	mov    -0x18(%rbp),%rax
    1835:	48 89 10             	mov    %rdx,(%rax)
    1838:	48 8b 45 e0          	mov    -0x20(%rbp),%rax
    183c:	48 8b 55 f8          	mov    -0x8(%rbp),%rdx
    1840:	48 89 10             	mov    %rdx,(%rax)
    1843:	90                   	nop
    1844:	5d                   	pop    %rbp
    1845:	c3                   	retq   

0000000000001846 <bli_toggle_bool>:
    1846:	f3 0f 1e fa          	endbr64 
    184a:	55                   	push   %rbp
    184b:	48 89 e5             	mov    %rsp,%rbp
    184e:	48 89 7d f8          	mov    %rdi,-0x8(%rbp)
    1852:	48 8b 45 f8          	mov    -0x8(%rbp),%rax
    1856:	0f b6 00             	movzbl (%rax),%eax
    1859:	84 c0                	test   %al,%al
    185b:	74 09                	je     1866 <bli_toggle_bool+0x20>
    185d:	48 8b 45 f8          	mov    -0x8(%rbp),%rax
    1861:	c6 00 00             	movb   $0x0,(%rax)
    1864:	eb 07                	jmp    186d <bli_toggle_bool+0x27>
    1866:	48 8b 45 f8          	mov    -0x8(%rbp),%rax
    186a:	c6 00 01             	movb   $0x1,(%rax)
    186d:	90                   	nop
    186e:	5d                   	pop    %rbp
    186f:	c3                   	retq   

0000000000001870 <bli_is_aligned_to>:
    1870:	f3 0f 1e fa          	endbr64 
    1874:	55                   	push   %rbp
    1875:	48 89 e5             	mov    %rsp,%rbp
    1878:	48 89 7d f8          	mov    %rdi,-0x8(%rbp)
    187c:	48 89 75 f0          	mov    %rsi,-0x10(%rbp)
    1880:	48 8b 45 f8          	mov    -0x8(%rbp),%rax
    1884:	ba 00 00 00 00       	mov    $0x0,%edx
    1889:	48 f7 75 f0          	divq   -0x10(%rbp)
    188d:	48 89 d0             	mov    %rdx,%rax
    1890:	48 85 c0             	test   %rax,%rax
    1893:	0f 94 c0             	sete   %al
    1896:	5d                   	pop    %rbp
    1897:	c3                   	retq   

0000000000001898 <bli_is_unaligned_to>:
    1898:	f3 0f 1e fa          	endbr64 
    189c:	55                   	push   %rbp
    189d:	48 89 e5             	mov    %rsp,%rbp
    18a0:	48 89 7d f8          	mov    %rdi,-0x8(%rbp)
    18a4:	48 89 75 f0          	mov    %rsi,-0x10(%rbp)
    18a8:	48 8b 45 f8          	mov    -0x8(%rbp),%rax
    18ac:	ba 00 00 00 00       	mov    $0x0,%edx
    18b1:	48 f7 75 f0          	divq   -0x10(%rbp)
    18b5:	48 89 d0             	mov    %rdx,%rax
    18b8:	48 85 c0             	test   %rax,%rax
    18bb:	0f 95 c0             	setne  %al
    18be:	5d                   	pop    %rbp
    18bf:	c3                   	retq   

00000000000018c0 <bli_offset_past_alignment>:
    18c0:	f3 0f 1e fa          	endbr64 
    18c4:	55                   	push   %rbp
    18c5:	48 89 e5             	mov    %rsp,%rbp
    18c8:	48 89 7d f8          	mov    %rdi,-0x8(%rbp)
    18cc:	48 89 75 f0          	mov    %rsi,-0x10(%rbp)
    18d0:	48 8b 45 f8          	mov    -0x8(%rbp),%rax
    18d4:	ba 00 00 00 00       	mov    $0x0,%edx
    18d9:	48 f7 75 f0          	divq   -0x10(%rbp)
    18dd:	48 89 d0             	mov    %rdx,%rax
    18e0:	5d                   	pop    %rbp
    18e1:	c3                   	retq   

00000000000018e2 <bli_is_float>:
    18e2:	f3 0f 1e fa          	endbr64 
    18e6:	55                   	push   %rbp
    18e7:	48 89 e5             	mov    %rsp,%rbp
    18ea:	89 7d fc             	mov    %edi,-0x4(%rbp)
    18ed:	83 7d fc 00          	cmpl   $0x0,-0x4(%rbp)
    18f1:	0f 94 c0             	sete   %al
    18f4:	5d                   	pop    %rbp
    18f5:	c3                   	retq   

00000000000018f6 <bli_is_double>:
    18f6:	f3 0f 1e fa          	endbr64 
    18fa:	55                   	push   %rbp
    18fb:	48 89 e5             	mov    %rsp,%rbp
    18fe:	89 7d fc             	mov    %edi,-0x4(%rbp)
    1901:	83 7d fc 02          	cmpl   $0x2,-0x4(%rbp)
    1905:	0f 94 c0             	sete   %al
    1908:	5d                   	pop    %rbp
    1909:	c3                   	retq   

000000000000190a <bli_is_scomplex>:
    190a:	f3 0f 1e fa          	endbr64 
    190e:	55                   	push   %rbp
    190f:	48 89 e5             	mov    %rsp,%rbp
    1912:	89 7d fc             	mov    %edi,-0x4(%rbp)
    1915:	83 7d fc 01          	cmpl   $0x1,-0x4(%rbp)
    1919:	0f 94 c0             	sete   %al
    191c:	5d                   	pop    %rbp
    191d:	c3                   	retq   

000000000000191e <bli_is_dcomplex>:
    191e:	f3 0f 1e fa          	endbr64 
    1922:	55                   	push   %rbp
    1923:	48 89 e5             	mov    %rsp,%rbp
    1926:	89 7d fc             	mov    %edi,-0x4(%rbp)
    1929:	83 7d fc 03          	cmpl   $0x3,-0x4(%rbp)
    192d:	0f 94 c0             	sete   %al
    1930:	5d                   	pop    %rbp
    1931:	c3                   	retq   

0000000000001932 <bli_is_constant>:
    1932:	f3 0f 1e fa          	endbr64 
    1936:	55                   	push   %rbp
    1937:	48 89 e5             	mov    %rsp,%rbp
    193a:	89 7d fc             	mov    %edi,-0x4(%rbp)
    193d:	83 7d fc 05          	cmpl   $0x5,-0x4(%rbp)
    1941:	0f 94 c0             	sete   %al
    1944:	5d                   	pop    %rbp
    1945:	c3                   	retq   

0000000000001946 <bli_is_int>:
    1946:	f3 0f 1e fa          	endbr64 
    194a:	55                   	push   %rbp
    194b:	48 89 e5             	mov    %rsp,%rbp
    194e:	89 7d fc             	mov    %edi,-0x4(%rbp)
    1951:	83 7d fc 04          	cmpl   $0x4,-0x4(%rbp)
    1955:	0f 94 c0             	sete   %al
    1958:	5d                   	pop    %rbp
    1959:	c3                   	retq   

000000000000195a <bli_is_real>:
    195a:	f3 0f 1e fa          	endbr64 
    195e:	55                   	push   %rbp
    195f:	48 89 e5             	mov    %rsp,%rbp
    1962:	48 83 ec 08          	sub    $0x8,%rsp
    1966:	89 7d fc             	mov    %edi,-0x4(%rbp)
    1969:	8b 45 fc             	mov    -0x4(%rbp),%eax
    196c:	89 c7                	mov    %eax,%edi
    196e:	e8 6f ff ff ff       	callq  18e2 <bli_is_float>
    1973:	84 c0                	test   %al,%al
    1975:	75 0e                	jne    1985 <bli_is_real+0x2b>
    1977:	8b 45 fc             	mov    -0x4(%rbp),%eax
    197a:	89 c7                	mov    %eax,%edi
    197c:	e8 75 ff ff ff       	callq  18f6 <bli_is_double>
    1981:	84 c0                	test   %al,%al
    1983:	74 07                	je     198c <bli_is_real+0x32>
    1985:	b8 01 00 00 00       	mov    $0x1,%eax
    198a:	eb 05                	jmp    1991 <bli_is_real+0x37>
    198c:	b8 00 00 00 00       	mov    $0x0,%eax
    1991:	83 e0 01             	and    $0x1,%eax
    1994:	c9                   	leaveq 
    1995:	c3                   	retq   

0000000000001996 <bli_is_complex>:
    1996:	f3 0f 1e fa          	endbr64 
    199a:	55                   	push   %rbp
    199b:	48 89 e5             	mov    %rsp,%rbp
    199e:	48 83 ec 08          	sub    $0x8,%rsp
    19a2:	89 7d fc             	mov    %edi,-0x4(%rbp)
    19a5:	8b 45 fc             	mov    -0x4(%rbp),%eax
    19a8:	89 c7                	mov    %eax,%edi
    19aa:	e8 5b ff ff ff       	callq  190a <bli_is_scomplex>
    19af:	84 c0                	test   %al,%al
    19b1:	75 0e                	jne    19c1 <bli_is_complex+0x2b>
    19b3:	8b 45 fc             	mov    -0x4(%rbp),%eax
    19b6:	89 c7                	mov    %eax,%edi
    19b8:	e8 61 ff ff ff       	callq  191e <bli_is_dcomplex>
    19bd:	84 c0                	test   %al,%al
    19bf:	74 07                	je     19c8 <bli_is_complex+0x32>
    19c1:	b8 01 00 00 00       	mov    $0x1,%eax
    19c6:	eb 05                	jmp    19cd <bli_is_complex+0x37>
    19c8:	b8 00 00 00 00       	mov    $0x0,%eax
    19cd:	83 e0 01             	and    $0x1,%eax
    19d0:	c9                   	leaveq 
    19d1:	c3                   	retq   

00000000000019d2 <bli_is_single_prec>:
    19d2:	f3 0f 1e fa          	endbr64 
    19d6:	55                   	push   %rbp
    19d7:	48 89 e5             	mov    %rsp,%rbp
    19da:	48 83 ec 08          	sub    $0x8,%rsp
    19de:	89 7d fc             	mov    %edi,-0x4(%rbp)
    19e1:	8b 45 fc             	mov    -0x4(%rbp),%eax
    19e4:	89 c7                	mov    %eax,%edi
    19e6:	e8 f7 fe ff ff       	callq  18e2 <bli_is_float>
    19eb:	84 c0                	test   %al,%al
    19ed:	75 0e                	jne    19fd <bli_is_single_prec+0x2b>
    19ef:	8b 45 fc             	mov    -0x4(%rbp),%eax
    19f2:	89 c7                	mov    %eax,%edi
    19f4:	e8 11 ff ff ff       	callq  190a <bli_is_scomplex>
    19f9:	84 c0                	test   %al,%al
    19fb:	74 07                	je     1a04 <bli_is_single_prec+0x32>
    19fd:	b8 01 00 00 00       	mov    $0x1,%eax
    1a02:	eb 05                	jmp    1a09 <bli_is_single_prec+0x37>
    1a04:	b8 00 00 00 00       	mov    $0x0,%eax
    1a09:	83 e0 01             	and    $0x1,%eax
    1a0c:	c9                   	leaveq 
    1a0d:	c3                   	retq   

0000000000001a0e <bli_is_double_prec>:
    1a0e:	f3 0f 1e fa          	endbr64 
    1a12:	55                   	push   %rbp
    1a13:	48 89 e5             	mov    %rsp,%rbp
    1a16:	48 83 ec 08          	sub    $0x8,%rsp
    1a1a:	89 7d fc             	mov    %edi,-0x4(%rbp)
    1a1d:	8b 45 fc             	mov    -0x4(%rbp),%eax
    1a20:	89 c7                	mov    %eax,%edi
    1a22:	e8 cf fe ff ff       	callq  18f6 <bli_is_double>
    1a27:	84 c0                	test   %al,%al
    1a29:	75 0e                	jne    1a39 <bli_is_double_prec+0x2b>
    1a2b:	8b 45 fc             	mov    -0x4(%rbp),%eax
    1a2e:	89 c7                	mov    %eax,%edi
    1a30:	e8 e9 fe ff ff       	callq  191e <bli_is_dcomplex>
    1a35:	84 c0                	test   %al,%al
    1a37:	74 07                	je     1a40 <bli_is_double_prec+0x32>
    1a39:	b8 01 00 00 00       	mov    $0x1,%eax
    1a3e:	eb 05                	jmp    1a45 <bli_is_double_prec+0x37>
    1a40:	b8 00 00 00 00       	mov    $0x0,%eax
    1a45:	83 e0 01             	and    $0x1,%eax
    1a48:	c9                   	leaveq 
    1a49:	c3                   	retq   

0000000000001a4a <bli_dt_domain>:
    1a4a:	f3 0f 1e fa          	endbr64 
    1a4e:	55                   	push   %rbp
    1a4f:	48 89 e5             	mov    %rsp,%rbp
    1a52:	89 7d fc             	mov    %edi,-0x4(%rbp)
    1a55:	8b 45 fc             	mov    -0x4(%rbp),%eax
    1a58:	83 e0 01             	and    $0x1,%eax
    1a5b:	5d                   	pop    %rbp
    1a5c:	c3                   	retq   

0000000000001a5d <bli_dt_dom_is_real>:
    1a5d:	f3 0f 1e fa          	endbr64 
    1a61:	55                   	push   %rbp
    1a62:	48 89 e5             	mov    %rsp,%rbp
    1a65:	89 7d fc             	mov    %edi,-0x4(%rbp)
    1a68:	8b 45 fc             	mov    -0x4(%rbp),%eax
    1a6b:	83 e0 01             	and    $0x1,%eax
    1a6e:	85 c0                	test   %eax,%eax
    1a70:	0f 94 c0             	sete   %al
    1a73:	5d                   	pop    %rbp
    1a74:	c3                   	retq   

0000000000001a75 <bli_dt_dom_is_complex>:
    1a75:	f3 0f 1e fa          	endbr64 
    1a79:	55                   	push   %rbp
    1a7a:	48 89 e5             	mov    %rsp,%rbp
    1a7d:	89 7d fc             	mov    %edi,-0x4(%rbp)
    1a80:	8b 45 fc             	mov    -0x4(%rbp),%eax
    1a83:	83 e0 01             	and    $0x1,%eax
    1a86:	85 c0                	test   %eax,%eax
    1a88:	0f 95 c0             	setne  %al
    1a8b:	5d                   	pop    %rbp
    1a8c:	c3                   	retq   

0000000000001a8d <bli_dt_prec>:
    1a8d:	f3 0f 1e fa          	endbr64 
    1a91:	55                   	push   %rbp
    1a92:	48 89 e5             	mov    %rsp,%rbp
    1a95:	89 7d fc             	mov    %edi,-0x4(%rbp)
    1a98:	8b 45 fc             	mov    -0x4(%rbp),%eax
    1a9b:	83 e0 02             	and    $0x2,%eax
    1a9e:	5d                   	pop    %rbp
    1a9f:	c3                   	retq   

0000000000001aa0 <bli_dt_prec_is_single>:
    1aa0:	f3 0f 1e fa          	endbr64 
    1aa4:	55                   	push   %rbp
    1aa5:	48 89 e5             	mov    %rsp,%rbp
    1aa8:	89 7d fc             	mov    %edi,-0x4(%rbp)
    1aab:	8b 45 fc             	mov    -0x4(%rbp),%eax
    1aae:	83 e0 02             	and    $0x2,%eax
    1ab1:	85 c0                	test   %eax,%eax
    1ab3:	0f 94 c0             	sete   %al
    1ab6:	5d                   	pop    %rbp
    1ab7:	c3                   	retq   

0000000000001ab8 <bli_dt_prec_is_double>:
    1ab8:	f3 0f 1e fa          	endbr64 
    1abc:	55                   	push   %rbp
    1abd:	48 89 e5             	mov    %rsp,%rbp
    1ac0:	89 7d fc             	mov    %edi,-0x4(%rbp)
    1ac3:	8b 45 fc             	mov    -0x4(%rbp),%eax
    1ac6:	83 e0 02             	and    $0x2,%eax
    1ac9:	85 c0                	test   %eax,%eax
    1acb:	0f 95 c0             	setne  %al
    1ace:	5d                   	pop    %rbp
    1acf:	c3                   	retq   

0000000000001ad0 <bli_dt_proj_to_real>:
    1ad0:	f3 0f 1e fa          	endbr64 
    1ad4:	55                   	push   %rbp
    1ad5:	48 89 e5             	mov    %rsp,%rbp
    1ad8:	89 7d fc             	mov    %edi,-0x4(%rbp)
    1adb:	8b 45 fc             	mov    -0x4(%rbp),%eax
    1ade:	83 e0 fe             	and    $0xfffffffe,%eax
    1ae1:	5d                   	pop    %rbp
    1ae2:	c3                   	retq   

0000000000001ae3 <bli_dt_proj_to_complex>:
    1ae3:	f3 0f 1e fa          	endbr64 
    1ae7:	55                   	push   %rbp
    1ae8:	48 89 e5             	mov    %rsp,%rbp
    1aeb:	89 7d fc             	mov    %edi,-0x4(%rbp)
    1aee:	8b 45 fc             	mov    -0x4(%rbp),%eax
    1af1:	83 c8 01             	or     $0x1,%eax
    1af4:	5d                   	pop    %rbp
    1af5:	c3                   	retq   

0000000000001af6 <bli_dt_proj_to_single_prec>:
    1af6:	f3 0f 1e fa          	endbr64 
    1afa:	55                   	push   %rbp
    1afb:	48 89 e5             	mov    %rsp,%rbp
    1afe:	89 7d fc             	mov    %edi,-0x4(%rbp)
    1b01:	8b 45 fc             	mov    -0x4(%rbp),%eax
    1b04:	83 e0 fd             	and    $0xfffffffd,%eax
    1b07:	5d                   	pop    %rbp
    1b08:	c3                   	retq   

0000000000001b09 <bli_dt_proj_to_double_prec>:
    1b09:	f3 0f 1e fa          	endbr64 
    1b0d:	55                   	push   %rbp
    1b0e:	48 89 e5             	mov    %rsp,%rbp
    1b11:	89 7d fc             	mov    %edi,-0x4(%rbp)
    1b14:	8b 45 fc             	mov    -0x4(%rbp),%eax
    1b17:	83 c8 02             	or     $0x2,%eax
    1b1a:	5d                   	pop    %rbp
    1b1b:	c3                   	retq   

0000000000001b1c <bli_is_notrans>:
    1b1c:	f3 0f 1e fa          	endbr64 
    1b20:	55                   	push   %rbp
    1b21:	48 89 e5             	mov    %rsp,%rbp
    1b24:	89 7d fc             	mov    %edi,-0x4(%rbp)
    1b27:	83 7d fc 00          	cmpl   $0x0,-0x4(%rbp)
    1b2b:	0f 94 c0             	sete   %al
    1b2e:	5d                   	pop    %rbp
    1b2f:	c3                   	retq   

0000000000001b30 <bli_is_trans>:
    1b30:	f3 0f 1e fa          	endbr64 
    1b34:	55                   	push   %rbp
    1b35:	48 89 e5             	mov    %rsp,%rbp
    1b38:	89 7d fc             	mov    %edi,-0x4(%rbp)
    1b3b:	83 7d fc 08          	cmpl   $0x8,-0x4(%rbp)
    1b3f:	0f 94 c0             	sete   %al
    1b42:	5d                   	pop    %rbp
    1b43:	c3                   	retq   

0000000000001b44 <bli_is_conjnotrans>:
    1b44:	f3 0f 1e fa          	endbr64 
    1b48:	55                   	push   %rbp
    1b49:	48 89 e5             	mov    %rsp,%rbp
    1b4c:	89 7d fc             	mov    %edi,-0x4(%rbp)
    1b4f:	83 7d fc 10          	cmpl   $0x10,-0x4(%rbp)
    1b53:	0f 94 c0             	sete   %al
    1b56:	5d                   	pop    %rbp
    1b57:	c3                   	retq   

0000000000001b58 <bli_is_conjtrans>:
    1b58:	f3 0f 1e fa          	endbr64 
    1b5c:	55                   	push   %rbp
    1b5d:	48 89 e5             	mov    %rsp,%rbp
    1b60:	89 7d fc             	mov    %edi,-0x4(%rbp)
    1b63:	83 7d fc 18          	cmpl   $0x18,-0x4(%rbp)
    1b67:	0f 94 c0             	sete   %al
    1b6a:	5d                   	pop    %rbp
    1b6b:	c3                   	retq   

0000000000001b6c <bli_does_notrans>:
    1b6c:	f3 0f 1e fa          	endbr64 
    1b70:	55                   	push   %rbp
    1b71:	48 89 e5             	mov    %rsp,%rbp
    1b74:	89 7d fc             	mov    %edi,-0x4(%rbp)
    1b77:	8b 45 fc             	mov    -0x4(%rbp),%eax
    1b7a:	83 e0 08             	and    $0x8,%eax
    1b7d:	85 c0                	test   %eax,%eax
    1b7f:	0f 94 c0             	sete   %al
    1b82:	5d                   	pop    %rbp
    1b83:	c3                   	retq   

0000000000001b84 <bli_does_trans>:
    1b84:	f3 0f 1e fa          	endbr64 
    1b88:	55                   	push   %rbp
    1b89:	48 89 e5             	mov    %rsp,%rbp
    1b8c:	89 7d fc             	mov    %edi,-0x4(%rbp)
    1b8f:	8b 45 fc             	mov    -0x4(%rbp),%eax
    1b92:	83 e0 08             	and    $0x8,%eax
    1b95:	85 c0                	test   %eax,%eax
    1b97:	0f 95 c0             	setne  %al
    1b9a:	5d                   	pop    %rbp
    1b9b:	c3                   	retq   

0000000000001b9c <bli_does_noconj>:
    1b9c:	f3 0f 1e fa          	endbr64 
    1ba0:	55                   	push   %rbp
    1ba1:	48 89 e5             	mov    %rsp,%rbp
    1ba4:	89 7d fc             	mov    %edi,-0x4(%rbp)
    1ba7:	8b 45 fc             	mov    -0x4(%rbp),%eax
    1baa:	83 e0 10             	and    $0x10,%eax
    1bad:	85 c0                	test   %eax,%eax
    1baf:	0f 94 c0             	sete   %al
    1bb2:	5d                   	pop    %rbp
    1bb3:	c3                   	retq   

0000000000001bb4 <bli_does_conj>:
    1bb4:	f3 0f 1e fa          	endbr64 
    1bb8:	55                   	push   %rbp
    1bb9:	48 89 e5             	mov    %rsp,%rbp
    1bbc:	89 7d fc             	mov    %edi,-0x4(%rbp)
    1bbf:	8b 45 fc             	mov    -0x4(%rbp),%eax
    1bc2:	83 e0 10             	and    $0x10,%eax
    1bc5:	85 c0                	test   %eax,%eax
    1bc7:	0f 95 c0             	setne  %al
    1bca:	5d                   	pop    %rbp
    1bcb:	c3                   	retq   

0000000000001bcc <bli_extract_trans>:
    1bcc:	f3 0f 1e fa          	endbr64 
    1bd0:	55                   	push   %rbp
    1bd1:	48 89 e5             	mov    %rsp,%rbp
    1bd4:	89 7d fc             	mov    %edi,-0x4(%rbp)
    1bd7:	8b 45 fc             	mov    -0x4(%rbp),%eax
    1bda:	83 e0 08             	and    $0x8,%eax
    1bdd:	5d                   	pop    %rbp
    1bde:	c3                   	retq   

0000000000001bdf <bli_extract_conj>:
    1bdf:	f3 0f 1e fa          	endbr64 
    1be3:	55                   	push   %rbp
    1be4:	48 89 e5             	mov    %rsp,%rbp
    1be7:	89 7d fc             	mov    %edi,-0x4(%rbp)
    1bea:	8b 45 fc             	mov    -0x4(%rbp),%eax
    1bed:	83 e0 10             	and    $0x10,%eax
    1bf0:	5d                   	pop    %rbp
    1bf1:	c3                   	retq   

0000000000001bf2 <bli_trans_toggled>:
    1bf2:	f3 0f 1e fa          	endbr64 
    1bf6:	55                   	push   %rbp
    1bf7:	48 89 e5             	mov    %rsp,%rbp
    1bfa:	89 7d fc             	mov    %edi,-0x4(%rbp)
    1bfd:	8b 45 fc             	mov    -0x4(%rbp),%eax
    1c00:	83 f0 08             	xor    $0x8,%eax
    1c03:	5d                   	pop    %rbp
    1c04:	c3                   	retq   

0000000000001c05 <bli_trans_toggled_conj>:
    1c05:	f3 0f 1e fa          	endbr64 
    1c09:	55                   	push   %rbp
    1c0a:	48 89 e5             	mov    %rsp,%rbp
    1c0d:	89 7d fc             	mov    %edi,-0x4(%rbp)
    1c10:	8b 45 fc             	mov    -0x4(%rbp),%eax
    1c13:	83 f0 10             	xor    $0x10,%eax
    1c16:	5d                   	pop    %rbp
    1c17:	c3                   	retq   

0000000000001c18 <bli_toggle_trans>:
    1c18:	f3 0f 1e fa          	endbr64 
    1c1c:	55                   	push   %rbp
    1c1d:	48 89 e5             	mov    %rsp,%rbp
    1c20:	48 83 ec 08          	sub    $0x8,%rsp
    1c24:	48 89 7d f8          	mov    %rdi,-0x8(%rbp)
    1c28:	48 8b 45 f8          	mov    -0x8(%rbp),%rax
    1c2c:	8b 00                	mov    (%rax),%eax
    1c2e:	89 c7                	mov    %eax,%edi
    1c30:	e8 bd ff ff ff       	callq  1bf2 <bli_trans_toggled>
    1c35:	48 8b 55 f8          	mov    -0x8(%rbp),%rdx
    1c39:	89 02                	mov    %eax,(%rdx)
    1c3b:	90                   	nop
    1c3c:	c9                   	leaveq 
    1c3d:	c3                   	retq   

0000000000001c3e <bli_is_left>:
    1c3e:	f3 0f 1e fa          	endbr64 
    1c42:	55                   	push   %rbp
    1c43:	48 89 e5             	mov    %rsp,%rbp
    1c46:	89 7d fc             	mov    %edi,-0x4(%rbp)
    1c49:	83 7d fc 00          	cmpl   $0x0,-0x4(%rbp)
    1c4d:	0f 94 c0             	sete   %al
    1c50:	5d                   	pop    %rbp
    1c51:	c3                   	retq   

0000000000001c52 <bli_is_right>:
    1c52:	f3 0f 1e fa          	endbr64 
    1c56:	55                   	push   %rbp
    1c57:	48 89 e5             	mov    %rsp,%rbp
    1c5a:	89 7d fc             	mov    %edi,-0x4(%rbp)
    1c5d:	83 7d fc 01          	cmpl   $0x1,-0x4(%rbp)
    1c61:	0f 94 c0             	sete   %al
    1c64:	5d                   	pop    %rbp
    1c65:	c3                   	retq   

0000000000001c66 <bli_side_toggled>:
    1c66:	f3 0f 1e fa          	endbr64 
    1c6a:	55                   	push   %rbp
    1c6b:	48 89 e5             	mov    %rsp,%rbp
    1c6e:	48 83 ec 08          	sub    $0x8,%rsp
    1c72:	89 7d fc             	mov    %edi,-0x4(%rbp)
    1c75:	8b 45 fc             	mov    -0x4(%rbp),%eax
    1c78:	89 c7                	mov    %eax,%edi
    1c7a:	e8 bf ff ff ff       	callq  1c3e <bli_is_left>
    1c7f:	0f b6 c0             	movzbl %al,%eax
    1c82:	c9                   	leaveq 
    1c83:	c3                   	retq   

0000000000001c84 <bli_toggle_side>:
    1c84:	f3 0f 1e fa          	endbr64 
    1c88:	55                   	push   %rbp
    1c89:	48 89 e5             	mov    %rsp,%rbp
    1c8c:	48 83 ec 08          	sub    $0x8,%rsp
    1c90:	48 89 7d f8          	mov    %rdi,-0x8(%rbp)
    1c94:	48 8b 45 f8          	mov    -0x8(%rbp),%rax
    1c98:	8b 00                	mov    (%rax),%eax
    1c9a:	89 c7                	mov    %eax,%edi
    1c9c:	e8 c5 ff ff ff       	callq  1c66 <bli_side_toggled>
    1ca1:	48 8b 55 f8          	mov    -0x8(%rbp),%rdx
    1ca5:	89 02                	mov    %eax,(%rdx)
    1ca7:	90                   	nop
    1ca8:	c9                   	leaveq 
    1ca9:	c3                   	retq   

0000000000001caa <bli_is_lower>:
    1caa:	f3 0f 1e fa          	endbr64 
    1cae:	55                   	push   %rbp
    1caf:	48 89 e5             	mov    %rsp,%rbp
    1cb2:	89 7d fc             	mov    %edi,-0x4(%rbp)
    1cb5:	81 7d fc c0 00 00 00 	cmpl   $0xc0,-0x4(%rbp)
    1cbc:	0f 94 c0             	sete   %al
    1cbf:	5d                   	pop    %rbp
    1cc0:	c3                   	retq   

0000000000001cc1 <bli_is_upper>:
    1cc1:	f3 0f 1e fa          	endbr64 
    1cc5:	55                   	push   %rbp
    1cc6:	48 89 e5             	mov    %rsp,%rbp
    1cc9:	89 7d fc             	mov    %edi,-0x4(%rbp)
    1ccc:	83 7d fc 60          	cmpl   $0x60,-0x4(%rbp)
    1cd0:	0f 94 c0             	sete   %al
    1cd3:	5d                   	pop    %rbp
    1cd4:	c3                   	retq   

0000000000001cd5 <bli_is_upper_or_lower>:
    1cd5:	f3 0f 1e fa          	endbr64 
    1cd9:	55                   	push   %rbp
    1cda:	48 89 e5             	mov    %rsp,%rbp
    1cdd:	48 83 ec 08          	sub    $0x8,%rsp
    1ce1:	89 7d fc             	mov    %edi,-0x4(%rbp)
    1ce4:	8b 45 fc             	mov    -0x4(%rbp),%eax
    1ce7:	89 c7                	mov    %eax,%edi
    1ce9:	e8 d3 ff ff ff       	callq  1cc1 <bli_is_upper>
    1cee:	84 c0                	test   %al,%al
    1cf0:	75 0e                	jne    1d00 <bli_is_upper_or_lower+0x2b>
    1cf2:	8b 45 fc             	mov    -0x4(%rbp),%eax
    1cf5:	89 c7                	mov    %eax,%edi
    1cf7:	e8 ae ff ff ff       	callq  1caa <bli_is_lower>
    1cfc:	84 c0                	test   %al,%al
    1cfe:	74 07                	je     1d07 <bli_is_upper_or_lower+0x32>
    1d00:	b8 01 00 00 00       	mov    $0x1,%eax
    1d05:	eb 05                	jmp    1d0c <bli_is_upper_or_lower+0x37>
    1d07:	b8 00 00 00 00       	mov    $0x0,%eax
    1d0c:	83 e0 01             	and    $0x1,%eax
    1d0f:	c9                   	leaveq 
    1d10:	c3                   	retq   

0000000000001d11 <bli_is_dense>:
    1d11:	f3 0f 1e fa          	endbr64 
    1d15:	55                   	push   %rbp
    1d16:	48 89 e5             	mov    %rsp,%rbp
    1d19:	89 7d fc             	mov    %edi,-0x4(%rbp)
    1d1c:	81 7d fc e0 00 00 00 	cmpl   $0xe0,-0x4(%rbp)
    1d23:	0f 94 c0             	sete   %al
    1d26:	5d                   	pop    %rbp
    1d27:	c3                   	retq   

0000000000001d28 <bli_is_zeros>:
    1d28:	f3 0f 1e fa          	endbr64 
    1d2c:	55                   	push   %rbp
    1d2d:	48 89 e5             	mov    %rsp,%rbp
    1d30:	89 7d fc             	mov    %edi,-0x4(%rbp)
    1d33:	83 7d fc 00          	cmpl   $0x0,-0x4(%rbp)
    1d37:	0f 94 c0             	sete   %al
    1d3a:	5d                   	pop    %rbp
    1d3b:	c3                   	retq   

0000000000001d3c <bli_uplo_toggled>:
    1d3c:	f3 0f 1e fa          	endbr64 
    1d40:	55                   	push   %rbp
    1d41:	48 89 e5             	mov    %rsp,%rbp
    1d44:	48 83 ec 08          	sub    $0x8,%rsp
    1d48:	89 7d fc             	mov    %edi,-0x4(%rbp)
    1d4b:	8b 45 fc             	mov    -0x4(%rbp),%eax
    1d4e:	89 c7                	mov    %eax,%edi
    1d50:	e8 80 ff ff ff       	callq  1cd5 <bli_is_upper_or_lower>
    1d55:	84 c0                	test   %al,%al
    1d57:	74 07                	je     1d60 <bli_uplo_toggled+0x24>
    1d59:	8b 45 fc             	mov    -0x4(%rbp),%eax
    1d5c:	34 a0                	xor    $0xa0,%al
    1d5e:	eb 03                	jmp    1d63 <bli_uplo_toggled+0x27>
    1d60:	8b 45 fc             	mov    -0x4(%rbp),%eax
    1d63:	c9                   	leaveq 
    1d64:	c3                   	retq   

0000000000001d65 <bli_toggle_uplo>:
    1d65:	f3 0f 1e fa          	endbr64 
    1d69:	55                   	push   %rbp
    1d6a:	48 89 e5             	mov    %rsp,%rbp
    1d6d:	48 83 ec 08          	sub    $0x8,%rsp
    1d71:	48 89 7d f8          	mov    %rdi,-0x8(%rbp)
    1d75:	48 8b 45 f8          	mov    -0x8(%rbp),%rax
    1d79:	8b 00                	mov    (%rax),%eax
    1d7b:	89 c7                	mov    %eax,%edi
    1d7d:	e8 ba ff ff ff       	callq  1d3c <bli_uplo_toggled>
    1d82:	48 8b 55 f8          	mov    -0x8(%rbp),%rdx
    1d86:	89 02                	mov    %eax,(%rdx)
    1d88:	90                   	nop
    1d89:	c9                   	leaveq 
    1d8a:	c3                   	retq   

0000000000001d8b <bli_is_general>:
    1d8b:	f3 0f 1e fa          	endbr64 
    1d8f:	55                   	push   %rbp
    1d90:	48 89 e5             	mov    %rsp,%rbp
    1d93:	89 7d fc             	mov    %edi,-0x4(%rbp)
    1d96:	83 7d fc 00          	cmpl   $0x0,-0x4(%rbp)
    1d9a:	0f 94 c0             	sete   %al
    1d9d:	5d                   	pop    %rbp
    1d9e:	c3                   	retq   

0000000000001d9f <bli_is_hermitian>:
    1d9f:	f3 0f 1e fa          	endbr64 
    1da3:	55                   	push   %rbp
    1da4:	48 89 e5             	mov    %rsp,%rbp
    1da7:	89 7d fc             	mov    %edi,-0x4(%rbp)
    1daa:	81 7d fc 00 00 00 08 	cmpl   $0x8000000,-0x4(%rbp)
    1db1:	0f 94 c0             	sete   %al
    1db4:	5d                   	pop    %rbp
    1db5:	c3                   	retq   

0000000000001db6 <bli_is_symmetric>:
    1db6:	f3 0f 1e fa          	endbr64 
    1dba:	55                   	push   %rbp
    1dbb:	48 89 e5             	mov    %rsp,%rbp
    1dbe:	89 7d fc             	mov    %edi,-0x4(%rbp)
    1dc1:	81 7d fc 00 00 00 10 	cmpl   $0x10000000,-0x4(%rbp)
    1dc8:	0f 94 c0             	sete   %al
    1dcb:	5d                   	pop    %rbp
    1dcc:	c3                   	retq   

0000000000001dcd <bli_is_triangular>:
    1dcd:	f3 0f 1e fa          	endbr64 
    1dd1:	55                   	push   %rbp
    1dd2:	48 89 e5             	mov    %rsp,%rbp
    1dd5:	89 7d fc             	mov    %edi,-0x4(%rbp)
    1dd8:	81 7d fc 00 00 00 18 	cmpl   $0x18000000,-0x4(%rbp)
    1ddf:	0f 94 c0             	sete   %al
    1de2:	5d                   	pop    %rbp
    1de3:	c3                   	retq   

0000000000001de4 <bli_is_herm_or_symm>:
    1de4:	f3 0f 1e fa          	endbr64 
    1de8:	55                   	push   %rbp
    1de9:	48 89 e5             	mov    %rsp,%rbp
    1dec:	48 83 ec 08          	sub    $0x8,%rsp
    1df0:	89 7d fc             	mov    %edi,-0x4(%rbp)
    1df3:	8b 45 fc             	mov    -0x4(%rbp),%eax
    1df6:	89 c7                	mov    %eax,%edi
    1df8:	e8 a2 ff ff ff       	callq  1d9f <bli_is_hermitian>
    1dfd:	84 c0                	test   %al,%al
    1dff:	75 0e                	jne    1e0f <bli_is_herm_or_symm+0x2b>
    1e01:	8b 45 fc             	mov    -0x4(%rbp),%eax
    1e04:	89 c7                	mov    %eax,%edi
    1e06:	e8 ab ff ff ff       	callq  1db6 <bli_is_symmetric>
    1e0b:	84 c0                	test   %al,%al
    1e0d:	74 07                	je     1e16 <bli_is_herm_or_symm+0x32>
    1e0f:	b8 01 00 00 00       	mov    $0x1,%eax
    1e14:	eb 05                	jmp    1e1b <bli_is_herm_or_symm+0x37>
    1e16:	b8 00 00 00 00       	mov    $0x0,%eax
    1e1b:	83 e0 01             	and    $0x1,%eax
    1e1e:	c9                   	leaveq 
    1e1f:	c3                   	retq   

0000000000001e20 <bli_is_noconj>:
    1e20:	f3 0f 1e fa          	endbr64 
    1e24:	55                   	push   %rbp
    1e25:	48 89 e5             	mov    %rsp,%rbp
    1e28:	89 7d fc             	mov    %edi,-0x4(%rbp)
    1e2b:	83 7d fc 00          	cmpl   $0x0,-0x4(%rbp)
    1e2f:	0f 94 c0             	sete   %al
    1e32:	5d                   	pop    %rbp
    1e33:	c3                   	retq   

0000000000001e34 <bli_is_conj>:
    1e34:	f3 0f 1e fa          	endbr64 
    1e38:	55                   	push   %rbp
    1e39:	48 89 e5             	mov    %rsp,%rbp
    1e3c:	89 7d fc             	mov    %edi,-0x4(%rbp)
    1e3f:	83 7d fc 10          	cmpl   $0x10,-0x4(%rbp)
    1e43:	0f 94 c0             	sete   %al
    1e46:	5d                   	pop    %rbp
    1e47:	c3                   	retq   

0000000000001e48 <bli_conj_toggled>:
    1e48:	f3 0f 1e fa          	endbr64 
    1e4c:	55                   	push   %rbp
    1e4d:	48 89 e5             	mov    %rsp,%rbp
    1e50:	89 7d fc             	mov    %edi,-0x4(%rbp)
    1e53:	8b 45 fc             	mov    -0x4(%rbp),%eax
    1e56:	83 f0 10             	xor    $0x10,%eax
    1e59:	5d                   	pop    %rbp
    1e5a:	c3                   	retq   

0000000000001e5b <bli_apply_conj>:
    1e5b:	f3 0f 1e fa          	endbr64 
    1e5f:	55                   	push   %rbp
    1e60:	48 89 e5             	mov    %rsp,%rbp
    1e63:	89 7d fc             	mov    %edi,-0x4(%rbp)
    1e66:	89 75 f8             	mov    %esi,-0x8(%rbp)
    1e69:	8b 45 f8             	mov    -0x8(%rbp),%eax
    1e6c:	33 45 fc             	xor    -0x4(%rbp),%eax
    1e6f:	5d                   	pop    %rbp
    1e70:	c3                   	retq   

0000000000001e71 <bli_toggle_conj>:
    1e71:	f3 0f 1e fa          	endbr64 
    1e75:	55                   	push   %rbp
    1e76:	48 89 e5             	mov    %rsp,%rbp
    1e79:	48 83 ec 08          	sub    $0x8,%rsp
    1e7d:	48 89 7d f8          	mov    %rdi,-0x8(%rbp)
    1e81:	48 8b 45 f8          	mov    -0x8(%rbp),%rax
    1e85:	8b 00                	mov    (%rax),%eax
    1e87:	89 c7                	mov    %eax,%edi
    1e89:	e8 ba ff ff ff       	callq  1e48 <bli_conj_toggled>
    1e8e:	48 8b 55 f8          	mov    -0x8(%rbp),%rdx
    1e92:	89 02                	mov    %eax,(%rdx)
    1e94:	90                   	nop
    1e95:	c9                   	leaveq 
    1e96:	c3                   	retq   

0000000000001e97 <bli_is_nonunit_diag>:
    1e97:	f3 0f 1e fa          	endbr64 
    1e9b:	55                   	push   %rbp
    1e9c:	48 89 e5             	mov    %rsp,%rbp
    1e9f:	89 7d fc             	mov    %edi,-0x4(%rbp)
    1ea2:	83 7d fc 00          	cmpl   $0x0,-0x4(%rbp)
    1ea6:	0f 94 c0             	sete   %al
    1ea9:	5d                   	pop    %rbp
    1eaa:	c3                   	retq   

0000000000001eab <bli_is_unit_diag>:
    1eab:	f3 0f 1e fa          	endbr64 
    1eaf:	55                   	push   %rbp
    1eb0:	48 89 e5             	mov    %rsp,%rbp
    1eb3:	89 7d fc             	mov    %edi,-0x4(%rbp)
    1eb6:	81 7d fc 00 01 00 00 	cmpl   $0x100,-0x4(%rbp)
    1ebd:	0f 94 c0             	sete   %al
    1ec0:	5d                   	pop    %rbp
    1ec1:	c3                   	retq   

0000000000001ec2 <bli_zero_dim1>:
    1ec2:	f3 0f 1e fa          	endbr64 
    1ec6:	55                   	push   %rbp
    1ec7:	48 89 e5             	mov    %rsp,%rbp
    1eca:	48 89 7d f8          	mov    %rdi,-0x8(%rbp)
    1ece:	48 83 7d f8 00       	cmpq   $0x0,-0x8(%rbp)
    1ed3:	0f 94 c0             	sete   %al
    1ed6:	5d                   	pop    %rbp
    1ed7:	c3                   	retq   

0000000000001ed8 <bli_zero_dim2>:
    1ed8:	f3 0f 1e fa          	endbr64 
    1edc:	55                   	push   %rbp
    1edd:	48 89 e5             	mov    %rsp,%rbp
    1ee0:	48 89 7d f8          	mov    %rdi,-0x8(%rbp)
    1ee4:	48 89 75 f0          	mov    %rsi,-0x10(%rbp)
    1ee8:	48 83 7d f8 00       	cmpq   $0x0,-0x8(%rbp)
    1eed:	74 07                	je     1ef6 <bli_zero_dim2+0x1e>
    1eef:	48 83 7d f0 00       	cmpq   $0x0,-0x10(%rbp)
    1ef4:	75 07                	jne    1efd <bli_zero_dim2+0x25>
    1ef6:	b8 01 00 00 00       	mov    $0x1,%eax
    1efb:	eb 05                	jmp    1f02 <bli_zero_dim2+0x2a>
    1efd:	b8 00 00 00 00       	mov    $0x0,%eax
    1f02:	83 e0 01             	and    $0x1,%eax
    1f05:	5d                   	pop    %rbp
    1f06:	c3                   	retq   

0000000000001f07 <bli_zero_dim3>:
    1f07:	f3 0f 1e fa          	endbr64 
    1f0b:	55                   	push   %rbp
    1f0c:	48 89 e5             	mov    %rsp,%rbp
    1f0f:	48 89 7d f8          	mov    %rdi,-0x8(%rbp)
    1f13:	48 89 75 f0          	mov    %rsi,-0x10(%rbp)
    1f17:	48 89 55 e8          	mov    %rdx,-0x18(%rbp)
    1f1b:	48 83 7d f8 00       	cmpq   $0x0,-0x8(%rbp)
    1f20:	74 0e                	je     1f30 <bli_zero_dim3+0x29>
    1f22:	48 83 7d f0 00       	cmpq   $0x0,-0x10(%rbp)
    1f27:	74 07                	je     1f30 <bli_zero_dim3+0x29>
    1f29:	48 83 7d e8 00       	cmpq   $0x0,-0x18(%rbp)
    1f2e:	75 07                	jne    1f37 <bli_zero_dim3+0x30>
    1f30:	b8 01 00 00 00       	mov    $0x1,%eax
    1f35:	eb 05                	jmp    1f3c <bli_zero_dim3+0x35>
    1f37:	b8 00 00 00 00       	mov    $0x0,%eax
    1f3c:	83 e0 01             	and    $0x1,%eax
    1f3f:	5d                   	pop    %rbp
    1f40:	c3                   	retq   

0000000000001f41 <bli_nonzero_dim>:
    1f41:	f3 0f 1e fa          	endbr64 
    1f45:	55                   	push   %rbp
    1f46:	48 89 e5             	mov    %rsp,%rbp
    1f49:	48 89 7d f8          	mov    %rdi,-0x8(%rbp)
    1f4d:	48 83 7d f8 00       	cmpq   $0x0,-0x8(%rbp)
    1f52:	0f 9f c0             	setg   %al
    1f55:	5d                   	pop    %rbp
    1f56:	c3                   	retq   

0000000000001f57 <bli_vector_dim>:
    1f57:	f3 0f 1e fa          	endbr64 
    1f5b:	55                   	push   %rbp
    1f5c:	48 89 e5             	mov    %rsp,%rbp
    1f5f:	48 89 7d f8          	mov    %rdi,-0x8(%rbp)
    1f63:	48 89 75 f0          	mov    %rsi,-0x10(%rbp)
    1f67:	48 83 7d f8 01       	cmpq   $0x1,-0x8(%rbp)
    1f6c:	75 0a                	jne    1f78 <bli_vector_dim+0x21>
    1f6e:	48 83 7d f0 00       	cmpq   $0x0,-0x10(%rbp)
    1f73:	0f 95 c0             	setne  %al
    1f76:	eb 08                	jmp    1f80 <bli_vector_dim+0x29>
    1f78:	48 83 7d f8 00       	cmpq   $0x0,-0x8(%rbp)
    1f7d:	0f 95 c0             	setne  %al
    1f80:	5d                   	pop    %rbp
    1f81:	c3                   	retq   

0000000000001f82 <bli_is_vector>:
    1f82:	f3 0f 1e fa          	endbr64 
    1f86:	55                   	push   %rbp
    1f87:	48 89 e5             	mov    %rsp,%rbp
    1f8a:	48 89 7d f8          	mov    %rdi,-0x8(%rbp)
    1f8e:	48 89 75 f0          	mov    %rsi,-0x10(%rbp)
    1f92:	48 83 7d f8 01       	cmpq   $0x1,-0x8(%rbp)
    1f97:	74 07                	je     1fa0 <bli_is_vector+0x1e>
    1f99:	48 83 7d f0 01       	cmpq   $0x1,-0x10(%rbp)
    1f9e:	75 07                	jne    1fa7 <bli_is_vector+0x25>
    1fa0:	b8 01 00 00 00       	mov    $0x1,%eax
    1fa5:	eb 05                	jmp    1fac <bli_is_vector+0x2a>
    1fa7:	b8 00 00 00 00       	mov    $0x0,%eax
    1fac:	83 e0 01             	and    $0x1,%eax
    1faf:	5d                   	pop    %rbp
    1fb0:	c3                   	retq   

0000000000001fb1 <bli_is_row_vector>:
    1fb1:	f3 0f 1e fa          	endbr64 
    1fb5:	55                   	push   %rbp
    1fb6:	48 89 e5             	mov    %rsp,%rbp
    1fb9:	48 89 7d f8          	mov    %rdi,-0x8(%rbp)
    1fbd:	48 89 75 f0          	mov    %rsi,-0x10(%rbp)
    1fc1:	48 83 7d f8 01       	cmpq   $0x1,-0x8(%rbp)
    1fc6:	0f 94 c0             	sete   %al
    1fc9:	5d                   	pop    %rbp
    1fca:	c3                   	retq   

0000000000001fcb <bli_is_col_vector>:
    1fcb:	f3 0f 1e fa          	endbr64 
    1fcf:	55                   	push   %rbp
    1fd0:	48 89 e5             	mov    %rsp,%rbp
    1fd3:	48 89 7d f8          	mov    %rdi,-0x8(%rbp)
    1fd7:	48 89 75 f0          	mov    %rsi,-0x10(%rbp)
    1fdb:	48 83 7d f0 01       	cmpq   $0x1,-0x10(%rbp)
    1fe0:	0f 94 c0             	sete   %al
    1fe3:	5d                   	pop    %rbp
    1fe4:	c3                   	retq   

0000000000001fe5 <bli_set_dim_with_side>:
    1fe5:	f3 0f 1e fa          	endbr64 
    1fe9:	55                   	push   %rbp
    1fea:	48 89 e5             	mov    %rsp,%rbp
    1fed:	48 83 ec 20          	sub    $0x20,%rsp
    1ff1:	89 7d fc             	mov    %edi,-0x4(%rbp)
    1ff4:	48 89 75 f0          	mov    %rsi,-0x10(%rbp)
    1ff8:	48 89 55 e8          	mov    %rdx,-0x18(%rbp)
    1ffc:	48 89 4d e0          	mov    %rcx,-0x20(%rbp)
    2000:	8b 45 fc             	mov    -0x4(%rbp),%eax
    2003:	89 c7                	mov    %eax,%edi
    2005:	e8 34 fc ff ff       	callq  1c3e <bli_is_left>
    200a:	84 c0                	test   %al,%al
    200c:	74 0d                	je     201b <bli_set_dim_with_side+0x36>
    200e:	48 8b 45 e0          	mov    -0x20(%rbp),%rax
    2012:	48 8b 55 f0          	mov    -0x10(%rbp),%rdx
    2016:	48 89 10             	mov    %rdx,(%rax)
    2019:	eb 0b                	jmp    2026 <bli_set_dim_with_side+0x41>
    201b:	48 8b 45 e0          	mov    -0x20(%rbp),%rax
    201f:	48 8b 55 e8          	mov    -0x18(%rbp),%rdx
    2023:	48 89 10             	mov    %rdx,(%rax)
    2026:	90                   	nop
    2027:	c9                   	leaveq 
    2028:	c3                   	retq   

0000000000002029 <bli_set_dims_with_trans>:
    2029:	f3 0f 1e fa          	endbr64 
    202d:	55                   	push   %rbp
    202e:	48 89 e5             	mov    %rsp,%rbp
    2031:	48 83 ec 28          	sub    $0x28,%rsp
    2035:	89 7d fc             	mov    %edi,-0x4(%rbp)
    2038:	48 89 75 f0          	mov    %rsi,-0x10(%rbp)
    203c:	48 89 55 e8          	mov    %rdx,-0x18(%rbp)
    2040:	48 89 4d e0          	mov    %rcx,-0x20(%rbp)
    2044:	4c 89 45 d8          	mov    %r8,-0x28(%rbp)
    2048:	8b 45 fc             	mov    -0x4(%rbp),%eax
    204b:	89 c7                	mov    %eax,%edi
    204d:	e8 1a fb ff ff       	callq  1b6c <bli_does_notrans>
    2052:	84 c0                	test   %al,%al
    2054:	74 18                	je     206e <bli_set_dims_with_trans+0x45>
    2056:	48 8b 45 e0          	mov    -0x20(%rbp),%rax
    205a:	48 8b 55 f0          	mov    -0x10(%rbp),%rdx
    205e:	48 89 10             	mov    %rdx,(%rax)
    2061:	48 8b 45 d8          	mov    -0x28(%rbp),%rax
    2065:	48 8b 55 e8          	mov    -0x18(%rbp),%rdx
    2069:	48 89 10             	mov    %rdx,(%rax)
    206c:	eb 16                	jmp    2084 <bli_set_dims_with_trans+0x5b>
    206e:	48 8b 45 e0          	mov    -0x20(%rbp),%rax
    2072:	48 8b 55 e8          	mov    -0x18(%rbp),%rdx
    2076:	48 89 10             	mov    %rdx,(%rax)
    2079:	48 8b 45 d8          	mov    -0x28(%rbp),%rax
    207d:	48 8b 55 f0          	mov    -0x10(%rbp),%rdx
    2081:	48 89 10             	mov    %rdx,(%rax)
    2084:	90                   	nop
    2085:	c9                   	leaveq 
    2086:	c3                   	retq   

0000000000002087 <bli_set_dims_incs_with_trans>:
    2087:	f3 0f 1e fa          	endbr64 
    208b:	55                   	push   %rbp
    208c:	48 89 e5             	mov    %rsp,%rbp
    208f:	48 83 ec 30          	sub    $0x30,%rsp
    2093:	89 7d fc             	mov    %edi,-0x4(%rbp)
    2096:	48 89 75 f0          	mov    %rsi,-0x10(%rbp)
    209a:	48 89 55 e8          	mov    %rdx,-0x18(%rbp)
    209e:	48 89 4d e0          	mov    %rcx,-0x20(%rbp)
    20a2:	4c 89 45 d8          	mov    %r8,-0x28(%rbp)
    20a6:	4c 89 4d d0          	mov    %r9,-0x30(%rbp)
    20aa:	8b 45 fc             	mov    -0x4(%rbp),%eax
    20ad:	89 c7                	mov    %eax,%edi
    20af:	e8 b8 fa ff ff       	callq  1b6c <bli_does_notrans>
    20b4:	84 c0                	test   %al,%al
    20b6:	74 2e                	je     20e6 <bli_set_dims_incs_with_trans+0x5f>
    20b8:	48 8b 45 d0          	mov    -0x30(%rbp),%rax
    20bc:	48 8b 55 f0          	mov    -0x10(%rbp),%rdx
    20c0:	48 89 10             	mov    %rdx,(%rax)
    20c3:	48 8b 45 10          	mov    0x10(%rbp),%rax
    20c7:	48 8b 55 e8          	mov    -0x18(%rbp),%rdx
    20cb:	48 89 10             	mov    %rdx,(%rax)
    20ce:	48 8b 45 18          	mov    0x18(%rbp),%rax
    20d2:	48 8b 55 e0          	mov    -0x20(%rbp),%rdx
    20d6:	48 89 10             	mov    %rdx,(%rax)
    20d9:	48 8b 45 20          	mov    0x20(%rbp),%rax
    20dd:	48 8b 55 d8          	mov    -0x28(%rbp),%rdx
    20e1:	48 89 10             	mov    %rdx,(%rax)
    20e4:	eb 2c                	jmp    2112 <bli_set_dims_incs_with_trans+0x8b>
    20e6:	48 8b 45 d0          	mov    -0x30(%rbp),%rax
    20ea:	48 8b 55 e8          	mov    -0x18(%rbp),%rdx
    20ee:	48 89 10             	mov    %rdx,(%rax)
    20f1:	48 8b 45 10          	mov    0x10(%rbp),%rax
    20f5:	48 8b 55 f0          	mov    -0x10(%rbp),%rdx
    20f9:	48 89 10             	mov    %rdx,(%rax)
    20fc:	48 8b 45 18          	mov    0x18(%rbp),%rax
    2100:	48 8b 55 d8          	mov    -0x28(%rbp),%rdx
    2104:	48 89 10             	mov    %rdx,(%rax)
    2107:	48 8b 45 20          	mov    0x20(%rbp),%rax
    210b:	48 8b 55 e0          	mov    -0x20(%rbp),%rdx
    210f:	48 89 10             	mov    %rdx,(%rax)
    2112:	90                   	nop
    2113:	c9                   	leaveq 
    2114:	c3                   	retq   

0000000000002115 <bli_determine_blocksize_dim_f>:
    2115:	f3 0f 1e fa          	endbr64 
    2119:	55                   	push   %rbp
    211a:	48 89 e5             	mov    %rsp,%rbp
    211d:	48 89 7d f8          	mov    %rdi,-0x8(%rbp)
    2121:	48 89 75 f0          	mov    %rsi,-0x10(%rbp)
    2125:	48 89 55 e8          	mov    %rdx,-0x18(%rbp)
    2129:	48 8b 45 f0          	mov    -0x10(%rbp),%rax
    212d:	48 2b 45 f8          	sub    -0x8(%rbp),%rax
    2131:	48 39 45 e8          	cmp    %rax,-0x18(%rbp)
    2135:	48 0f 4e 45 e8       	cmovle -0x18(%rbp),%rax
    213a:	5d                   	pop    %rbp
    213b:	c3                   	retq   

000000000000213c <bli_determine_blocksize_dim_b>:
    213c:	f3 0f 1e fa          	endbr64 
    2140:	55                   	push   %rbp
    2141:	48 89 e5             	mov    %rsp,%rbp
    2144:	48 89 7d f8          	mov    %rdi,-0x8(%rbp)
    2148:	48 89 75 f0          	mov    %rsi,-0x10(%rbp)
    214c:	48 89 55 e8          	mov    %rdx,-0x18(%rbp)
    2150:	48 83 7d f8 00       	cmpq   $0x0,-0x8(%rbp)
    2155:	75 21                	jne    2178 <bli_determine_blocksize_dim_b+0x3c>
    2157:	48 8b 45 f0          	mov    -0x10(%rbp),%rax
    215b:	48 99                	cqto   
    215d:	48 f7 7d e8          	idivq  -0x18(%rbp)
    2161:	48 89 d0             	mov    %rdx,%rax
    2164:	48 85 c0             	test   %rax,%rax
    2167:	74 0f                	je     2178 <bli_determine_blocksize_dim_b+0x3c>
    2169:	48 8b 45 f0          	mov    -0x10(%rbp),%rax
    216d:	48 99                	cqto   
    216f:	48 f7 7d e8          	idivq  -0x18(%rbp)
    2173:	48 89 d0             	mov    %rdx,%rax
    2176:	eb 04                	jmp    217c <bli_determine_blocksize_dim_b+0x40>
    2178:	48 8b 45 e8          	mov    -0x18(%rbp),%rax
    217c:	5d                   	pop    %rbp
    217d:	c3                   	retq   

000000000000217e <bli_vector_inc>:
    217e:	f3 0f 1e fa          	endbr64 
    2182:	55                   	push   %rbp
    2183:	48 89 e5             	mov    %rsp,%rbp
    2186:	48 83 ec 28          	sub    $0x28,%rsp
    218a:	89 7d fc             	mov    %edi,-0x4(%rbp)
    218d:	48 89 75 f0          	mov    %rsi,-0x10(%rbp)
    2191:	48 89 55 e8          	mov    %rdx,-0x18(%rbp)
    2195:	48 89 4d e0          	mov    %rcx,-0x20(%rbp)
    2199:	4c 89 45 d8          	mov    %r8,-0x28(%rbp)
    219d:	8b 45 fc             	mov    -0x4(%rbp),%eax
    21a0:	89 c7                	mov    %eax,%edi
    21a2:	e8 c5 f9 ff ff       	callq  1b6c <bli_does_notrans>
    21a7:	84 c0                	test   %al,%al
    21a9:	74 13                	je     21be <bli_vector_inc+0x40>
    21ab:	48 83 7d f0 01       	cmpq   $0x1,-0x10(%rbp)
    21b0:	75 06                	jne    21b8 <bli_vector_inc+0x3a>
    21b2:	48 8b 45 d8          	mov    -0x28(%rbp),%rax
    21b6:	eb 17                	jmp    21cf <bli_vector_inc+0x51>
    21b8:	48 8b 45 e0          	mov    -0x20(%rbp),%rax
    21bc:	eb 11                	jmp    21cf <bli_vector_inc+0x51>
    21be:	48 83 7d f0 01       	cmpq   $0x1,-0x10(%rbp)
    21c3:	75 06                	jne    21cb <bli_vector_inc+0x4d>
    21c5:	48 8b 45 e0          	mov    -0x20(%rbp),%rax
    21c9:	eb 04                	jmp    21cf <bli_vector_inc+0x51>
    21cb:	48 8b 45 d8          	mov    -0x28(%rbp),%rax
    21cf:	c9                   	leaveq 
    21d0:	c3                   	retq   

00000000000021d1 <bli_is_row_stored>:
    21d1:	f3 0f 1e fa          	endbr64 
    21d5:	55                   	push   %rbp
    21d6:	48 89 e5             	mov    %rsp,%rbp
    21d9:	48 89 7d f8          	mov    %rdi,-0x8(%rbp)
    21dd:	48 89 75 f0          	mov    %rsi,-0x10(%rbp)
    21e1:	48 8b 45 f0          	mov    -0x10(%rbp),%rax
    21e5:	48 99                	cqto   
    21e7:	48 89 d0             	mov    %rdx,%rax
    21ea:	48 33 45 f0          	xor    -0x10(%rbp),%rax
    21ee:	48 29 d0             	sub    %rdx,%rax
    21f1:	48 83 f8 01          	cmp    $0x1,%rax
    21f5:	0f 94 c0             	sete   %al
    21f8:	5d                   	pop    %rbp
    21f9:	c3                   	retq   

00000000000021fa <bli_is_col_stored>:
    21fa:	f3 0f 1e fa          	endbr64 
    21fe:	55                   	push   %rbp
    21ff:	48 89 e5             	mov    %rsp,%rbp
    2202:	48 89 7d f8          	mov    %rdi,-0x8(%rbp)
    2206:	48 89 75 f0          	mov    %rsi,-0x10(%rbp)
    220a:	48 8b 45 f8          	mov    -0x8(%rbp),%rax
    220e:	48 99                	cqto   
    2210:	48 89 d0             	mov    %rdx,%rax
    2213:	48 33 45 f8          	xor    -0x8(%rbp),%rax
    2217:	48 29 d0             	sub    %rdx,%rax
    221a:	48 83 f8 01          	cmp    $0x1,%rax
    221e:	0f 94 c0             	sete   %al
    2221:	5d                   	pop    %rbp
    2222:	c3                   	retq   

0000000000002223 <bli_is_row_stored_f>:
    2223:	f3 0f 1e fa          	endbr64 
    2227:	55                   	push   %rbp
    2228:	48 89 e5             	mov    %rsp,%rbp
    222b:	48 89 7d f8          	mov    %rdi,-0x8(%rbp)
    222f:	48 89 75 f0          	mov    %rsi,-0x10(%rbp)
    2233:	48 89 55 e8          	mov    %rdx,-0x18(%rbp)
    2237:	48 89 4d e0          	mov    %rcx,-0x20(%rbp)
    223b:	48 83 7d e0 01       	cmpq   $0x1,-0x20(%rbp)
    2240:	75 15                	jne    2257 <bli_is_row_stored_f+0x34>
    2242:	48 83 7d e8 01       	cmpq   $0x1,-0x18(%rbp)
    2247:	7f 07                	jg     2250 <bli_is_row_stored_f+0x2d>
    2249:	48 83 7d f0 01       	cmpq   $0x1,-0x10(%rbp)
    224e:	75 07                	jne    2257 <bli_is_row_stored_f+0x34>
    2250:	b8 01 00 00 00       	mov    $0x1,%eax
    2255:	eb 05                	jmp    225c <bli_is_row_stored_f+0x39>
    2257:	b8 00 00 00 00       	mov    $0x0,%eax
    225c:	83 e0 01             	and    $0x1,%eax
    225f:	5d                   	pop    %rbp
    2260:	c3                   	retq   

0000000000002261 <bli_is_col_stored_f>:
    2261:	f3 0f 1e fa          	endbr64 
    2265:	55                   	push   %rbp
    2266:	48 89 e5             	mov    %rsp,%rbp
    2269:	48 89 7d f8          	mov    %rdi,-0x8(%rbp)
    226d:	48 89 75 f0          	mov    %rsi,-0x10(%rbp)
    2271:	48 89 55 e8          	mov    %rdx,-0x18(%rbp)
    2275:	48 89 4d e0          	mov    %rcx,-0x20(%rbp)
    2279:	48 83 7d e8 01       	cmpq   $0x1,-0x18(%rbp)
    227e:	75 15                	jne    2295 <bli_is_col_stored_f+0x34>
    2280:	48 83 7d e0 01       	cmpq   $0x1,-0x20(%rbp)
    2285:	7f 07                	jg     228e <bli_is_col_stored_f+0x2d>
    2287:	48 83 7d f8 01       	cmpq   $0x1,-0x8(%rbp)
    228c:	75 07                	jne    2295 <bli_is_col_stored_f+0x34>
    228e:	b8 01 00 00 00       	mov    $0x1,%eax
    2293:	eb 05                	jmp    229a <bli_is_col_stored_f+0x39>
    2295:	b8 00 00 00 00       	mov    $0x0,%eax
    229a:	83 e0 01             	and    $0x1,%eax
    229d:	5d                   	pop    %rbp
    229e:	c3                   	retq   

000000000000229f <bli_is_gen_stored>:
    229f:	f3 0f 1e fa          	endbr64 
    22a3:	55                   	push   %rbp
    22a4:	48 89 e5             	mov    %rsp,%rbp
    22a7:	48 89 7d f8          	mov    %rdi,-0x8(%rbp)
    22ab:	48 89 75 f0          	mov    %rsi,-0x10(%rbp)
    22af:	48 8b 45 f8          	mov    -0x8(%rbp),%rax
    22b3:	48 99                	cqto   
    22b5:	48 89 d0             	mov    %rdx,%rax
    22b8:	48 33 45 f8          	xor    -0x8(%rbp),%rax
    22bc:	48 29 d0             	sub    %rdx,%rax
    22bf:	48 83 f8 01          	cmp    $0x1,%rax
    22c3:	74 1d                	je     22e2 <bli_is_gen_stored+0x43>
    22c5:	48 8b 45 f0          	mov    -0x10(%rbp),%rax
    22c9:	48 99                	cqto   
    22cb:	48 89 d0             	mov    %rdx,%rax
    22ce:	48 33 45 f0          	xor    -0x10(%rbp),%rax
    22d2:	48 29 d0             	sub    %rdx,%rax
    22d5:	48 83 f8 01          	cmp    $0x1,%rax
    22d9:	74 07                	je     22e2 <bli_is_gen_stored+0x43>
    22db:	b8 01 00 00 00       	mov    $0x1,%eax
    22e0:	eb 05                	jmp    22e7 <bli_is_gen_stored+0x48>
    22e2:	b8 00 00 00 00       	mov    $0x0,%eax
    22e7:	83 e0 01             	and    $0x1,%eax
    22ea:	5d                   	pop    %rbp
    22eb:	c3                   	retq   

00000000000022ec <bli_is_row_tilted>:
    22ec:	f3 0f 1e fa          	endbr64 
    22f0:	55                   	push   %rbp
    22f1:	48 89 e5             	mov    %rsp,%rbp
    22f4:	48 89 7d f8          	mov    %rdi,-0x8(%rbp)
    22f8:	48 89 75 f0          	mov    %rsi,-0x10(%rbp)
    22fc:	48 89 55 e8          	mov    %rdx,-0x18(%rbp)
    2300:	48 89 4d e0          	mov    %rcx,-0x20(%rbp)
    2304:	48 8b 45 e0          	mov    -0x20(%rbp),%rax
    2308:	48 c1 f8 3f          	sar    $0x3f,%rax
    230c:	48 89 c2             	mov    %rax,%rdx
    230f:	48 33 55 e0          	xor    -0x20(%rbp),%rdx
    2313:	48 29 c2             	sub    %rax,%rdx
    2316:	48 8b 45 e8          	mov    -0x18(%rbp),%rax
    231a:	48 c1 f8 3f          	sar    $0x3f,%rax
    231e:	48 89 c1             	mov    %rax,%rcx
    2321:	48 89 c8             	mov    %rcx,%rax
    2324:	48 33 45 e8          	xor    -0x18(%rbp),%rax
    2328:	48 29 c8             	sub    %rcx,%rax
    232b:	48 39 c2             	cmp    %rax,%rdx
    232e:	75 0d                	jne    233d <bli_is_row_tilted+0x51>
    2330:	48 8b 45 f0          	mov    -0x10(%rbp),%rax
    2334:	48 3b 45 f8          	cmp    -0x8(%rbp),%rax
    2338:	0f 9c c0             	setl   %al
    233b:	eb 2d                	jmp    236a <bli_is_row_tilted+0x7e>
    233d:	48 8b 45 e0          	mov    -0x20(%rbp),%rax
    2341:	48 c1 f8 3f          	sar    $0x3f,%rax
    2345:	48 89 c2             	mov    %rax,%rdx
    2348:	48 33 55 e0          	xor    -0x20(%rbp),%rdx
    234c:	48 29 c2             	sub    %rax,%rdx
    234f:	48 8b 45 e8          	mov    -0x18(%rbp),%rax
    2353:	48 c1 f8 3f          	sar    $0x3f,%rax
    2357:	48 89 c1             	mov    %rax,%rcx
    235a:	48 89 c8             	mov    %rcx,%rax
    235d:	48 33 45 e8          	xor    -0x18(%rbp),%rax
    2361:	48 29 c8             	sub    %rcx,%rax
    2364:	48 39 c2             	cmp    %rax,%rdx
    2367:	0f 9c c0             	setl   %al
    236a:	5d                   	pop    %rbp
    236b:	c3                   	retq   

000000000000236c <bli_is_col_tilted>:
    236c:	f3 0f 1e fa          	endbr64 
    2370:	55                   	push   %rbp
    2371:	48 89 e5             	mov    %rsp,%rbp
    2374:	48 89 7d f8          	mov    %rdi,-0x8(%rbp)
    2378:	48 89 75 f0          	mov    %rsi,-0x10(%rbp)
    237c:	48 89 55 e8          	mov    %rdx,-0x18(%rbp)
    2380:	48 89 4d e0          	mov    %rcx,-0x20(%rbp)
    2384:	48 8b 45 e8          	mov    -0x18(%rbp),%rax
    2388:	48 c1 f8 3f          	sar    $0x3f,%rax
    238c:	48 89 c2             	mov    %rax,%rdx
    238f:	48 33 55 e8          	xor    -0x18(%rbp),%rdx
    2393:	48 29 c2             	sub    %rax,%rdx
    2396:	48 8b 45 e0          	mov    -0x20(%rbp),%rax
    239a:	48 c1 f8 3f          	sar    $0x3f,%rax
    239e:	48 89 c1             	mov    %rax,%rcx
    23a1:	48 89 c8             	mov    %rcx,%rax
    23a4:	48 33 45 e0          	xor    -0x20(%rbp),%rax
    23a8:	48 29 c8             	sub    %rcx,%rax
    23ab:	48 39 c2             	cmp    %rax,%rdx
    23ae:	75 0d                	jne    23bd <bli_is_col_tilted+0x51>
    23b0:	48 8b 45 f8          	mov    -0x8(%rbp),%rax
    23b4:	48 3b 45 f0          	cmp    -0x10(%rbp),%rax
    23b8:	0f 9c c0             	setl   %al
    23bb:	eb 2d                	jmp    23ea <bli_is_col_tilted+0x7e>
    23bd:	48 8b 45 e8          	mov    -0x18(%rbp),%rax
    23c1:	48 c1 f8 3f          	sar    $0x3f,%rax
    23c5:	48 89 c2             	mov    %rax,%rdx
    23c8:	48 33 55 e8          	xor    -0x18(%rbp),%rdx
    23cc:	48 29 c2             	sub    %rax,%rdx
    23cf:	48 8b 45 e0          	mov    -0x20(%rbp),%rax
    23d3:	48 c1 f8 3f          	sar    $0x3f,%rax
    23d7:	48 89 c1             	mov    %rax,%rcx
    23da:	48 89 c8             	mov    %rcx,%rax
    23dd:	48 33 45 e0          	xor    -0x20(%rbp),%rax
    23e1:	48 29 c8             	sub    %rcx,%rax
    23e4:	48 39 c2             	cmp    %rax,%rdx
    23e7:	0f 9c c0             	setl   %al
    23ea:	5d                   	pop    %rbp
    23eb:	c3                   	retq   

00000000000023ec <bli_has_nonunit_inc1>:
    23ec:	f3 0f 1e fa          	endbr64 
    23f0:	55                   	push   %rbp
    23f1:	48 89 e5             	mov    %rsp,%rbp
    23f4:	48 89 7d f8          	mov    %rdi,-0x8(%rbp)
    23f8:	48 83 7d f8 01       	cmpq   $0x1,-0x8(%rbp)
    23fd:	0f 95 c0             	setne  %al
    2400:	5d                   	pop    %rbp
    2401:	c3                   	retq   

0000000000002402 <bli_has_nonunit_inc2>:
    2402:	f3 0f 1e fa          	endbr64 
    2406:	55                   	push   %rbp
    2407:	48 89 e5             	mov    %rsp,%rbp
    240a:	48 89 7d f8          	mov    %rdi,-0x8(%rbp)
    240e:	48 89 75 f0          	mov    %rsi,-0x10(%rbp)
    2412:	48 83 7d f8 01       	cmpq   $0x1,-0x8(%rbp)
    2417:	75 07                	jne    2420 <bli_has_nonunit_inc2+0x1e>
    2419:	48 83 7d f0 01       	cmpq   $0x1,-0x10(%rbp)
    241e:	74 07                	je     2427 <bli_has_nonunit_inc2+0x25>
    2420:	b8 01 00 00 00       	mov    $0x1,%eax
    2425:	eb 05                	jmp    242c <bli_has_nonunit_inc2+0x2a>
    2427:	b8 00 00 00 00       	mov    $0x0,%eax
    242c:	83 e0 01             	and    $0x1,%eax
    242f:	5d                   	pop    %rbp
    2430:	c3                   	retq   

0000000000002431 <bli_has_nonunit_inc3>:
    2431:	f3 0f 1e fa          	endbr64 
    2435:	55                   	push   %rbp
    2436:	48 89 e5             	mov    %rsp,%rbp
    2439:	48 89 7d f8          	mov    %rdi,-0x8(%rbp)
    243d:	48 89 75 f0          	mov    %rsi,-0x10(%rbp)
    2441:	48 89 55 e8          	mov    %rdx,-0x18(%rbp)
    2445:	48 83 7d f8 01       	cmpq   $0x1,-0x8(%rbp)
    244a:	75 0e                	jne    245a <bli_has_nonunit_inc3+0x29>
    244c:	48 83 7d f0 01       	cmpq   $0x1,-0x10(%rbp)
    2451:	75 07                	jne    245a <bli_has_nonunit_inc3+0x29>
    2453:	48 83 7d e8 01       	cmpq   $0x1,-0x18(%rbp)
    2458:	74 07                	je     2461 <bli_has_nonunit_inc3+0x30>
    245a:	b8 01 00 00 00       	mov    $0x1,%eax
    245f:	eb 05                	jmp    2466 <bli_has_nonunit_inc3+0x35>
    2461:	b8 00 00 00 00       	mov    $0x0,%eax
    2466:	83 e0 01             	and    $0x1,%eax
    2469:	5d                   	pop    %rbp
    246a:	c3                   	retq   

000000000000246b <bli_negate_diag_offset>:
    246b:	f3 0f 1e fa          	endbr64 
    246f:	55                   	push   %rbp
    2470:	48 89 e5             	mov    %rsp,%rbp
    2473:	48 89 7d f8          	mov    %rdi,-0x8(%rbp)
    2477:	48 8b 45 f8          	mov    -0x8(%rbp),%rax
    247b:	48 8b 00             	mov    (%rax),%rax
    247e:	48 f7 d8             	neg    %rax
    2481:	48 89 c2             	mov    %rax,%rdx
    2484:	48 8b 45 f8          	mov    -0x8(%rbp),%rax
    2488:	48 89 10             	mov    %rdx,(%rax)
    248b:	90                   	nop
    248c:	5d                   	pop    %rbp
    248d:	c3                   	retq   

000000000000248e <bli_shift_diag_offset_to_grow_uplo>:
    248e:	f3 0f 1e fa          	endbr64 
    2492:	55                   	push   %rbp
    2493:	48 89 e5             	mov    %rsp,%rbp
    2496:	48 83 ec 10          	sub    $0x10,%rsp
    249a:	89 7d fc             	mov    %edi,-0x4(%rbp)
    249d:	48 89 75 f0          	mov    %rsi,-0x10(%rbp)
    24a1:	8b 45 fc             	mov    -0x4(%rbp),%eax
    24a4:	89 c7                	mov    %eax,%edi
    24a6:	e8 16 f8 ff ff       	callq  1cc1 <bli_is_upper>
    24ab:	84 c0                	test   %al,%al
    24ad:	74 14                	je     24c3 <bli_shift_diag_offset_to_grow_uplo+0x35>
    24af:	48 8b 45 f0          	mov    -0x10(%rbp),%rax
    24b3:	48 8b 00             	mov    (%rax),%rax
    24b6:	48 8d 50 ff          	lea    -0x1(%rax),%rdx
    24ba:	48 8b 45 f0          	mov    -0x10(%rbp),%rax
    24be:	48 89 10             	mov    %rdx,(%rax)
    24c1:	eb 20                	jmp    24e3 <bli_shift_diag_offset_to_grow_uplo+0x55>
    24c3:	8b 45 fc             	mov    -0x4(%rbp),%eax
    24c6:	89 c7                	mov    %eax,%edi
    24c8:	e8 dd f7 ff ff       	callq  1caa <bli_is_lower>
    24cd:	84 c0                	test   %al,%al
    24cf:	74 12                	je     24e3 <bli_shift_diag_offset_to_grow_uplo+0x55>
    24d1:	48 8b 45 f0          	mov    -0x10(%rbp),%rax
    24d5:	48 8b 00             	mov    (%rax),%rax
    24d8:	48 8d 50 01          	lea    0x1(%rax),%rdx
    24dc:	48 8b 45 f0          	mov    -0x10(%rbp),%rax
    24e0:	48 89 10             	mov    %rdx,(%rax)
    24e3:	90                   	nop
    24e4:	c9                   	leaveq 
    24e5:	c3                   	retq   

00000000000024e6 <bli_shift_diag_offset_to_shrink_uplo>:
    24e6:	f3 0f 1e fa          	endbr64 
    24ea:	55                   	push   %rbp
    24eb:	48 89 e5             	mov    %rsp,%rbp
    24ee:	48 83 ec 10          	sub    $0x10,%rsp
    24f2:	89 7d fc             	mov    %edi,-0x4(%rbp)
    24f5:	48 89 75 f0          	mov    %rsi,-0x10(%rbp)
    24f9:	8b 45 fc             	mov    -0x4(%rbp),%eax
    24fc:	89 c7                	mov    %eax,%edi
    24fe:	e8 be f7 ff ff       	callq  1cc1 <bli_is_upper>
    2503:	84 c0                	test   %al,%al
    2505:	74 14                	je     251b <bli_shift_diag_offset_to_shrink_uplo+0x35>
    2507:	48 8b 45 f0          	mov    -0x10(%rbp),%rax
    250b:	48 8b 00             	mov    (%rax),%rax
    250e:	48 8d 50 01          	lea    0x1(%rax),%rdx
    2512:	48 8b 45 f0          	mov    -0x10(%rbp),%rax
    2516:	48 89 10             	mov    %rdx,(%rax)
    2519:	eb 20                	jmp    253b <bli_shift_diag_offset_to_shrink_uplo+0x55>
    251b:	8b 45 fc             	mov    -0x4(%rbp),%eax
    251e:	89 c7                	mov    %eax,%edi
    2520:	e8 85 f7 ff ff       	callq  1caa <bli_is_lower>
    2525:	84 c0                	test   %al,%al
    2527:	74 12                	je     253b <bli_shift_diag_offset_to_shrink_uplo+0x55>
    2529:	48 8b 45 f0          	mov    -0x10(%rbp),%rax
    252d:	48 8b 00             	mov    (%rax),%rax
    2530:	48 8d 50 ff          	lea    -0x1(%rax),%rdx
    2534:	48 8b 45 f0          	mov    -0x10(%rbp),%rax
    2538:	48 89 10             	mov    %rdx,(%rax)
    253b:	90                   	nop
    253c:	c9                   	leaveq 
    253d:	c3                   	retq   

000000000000253e <bli_diag_offset_with_trans>:
    253e:	f3 0f 1e fa          	endbr64 
    2542:	55                   	push   %rbp
    2543:	48 89 e5             	mov    %rsp,%rbp
    2546:	48 83 ec 10          	sub    $0x10,%rsp
    254a:	89 7d fc             	mov    %edi,-0x4(%rbp)
    254d:	48 89 75 f0          	mov    %rsi,-0x10(%rbp)
    2551:	8b 45 fc             	mov    -0x4(%rbp),%eax
    2554:	89 c7                	mov    %eax,%edi
    2556:	e8 29 f6 ff ff       	callq  1b84 <bli_does_trans>
    255b:	84 c0                	test   %al,%al
    255d:	74 09                	je     2568 <bli_diag_offset_with_trans+0x2a>
    255f:	48 8b 45 f0          	mov    -0x10(%rbp),%rax
    2563:	48 f7 d8             	neg    %rax
    2566:	eb 04                	jmp    256c <bli_diag_offset_with_trans+0x2e>
    2568:	48 8b 45 f0          	mov    -0x10(%rbp),%rax
    256c:	c9                   	leaveq 
    256d:	c3                   	retq   

000000000000256e <bli_is_strictly_above_diag>:
    256e:	f3 0f 1e fa          	endbr64 
    2572:	55                   	push   %rbp
    2573:	48 89 e5             	mov    %rsp,%rbp
    2576:	48 83 ec 20          	sub    $0x20,%rsp
    257a:	48 89 7d f8          	mov    %rdi,-0x8(%rbp)
    257e:	89 75 f4             	mov    %esi,-0xc(%rbp)
    2581:	48 89 55 e8          	mov    %rdx,-0x18(%rbp)
    2585:	48 89 4d e0          	mov    %rcx,-0x20(%rbp)
    2589:	8b 45 f4             	mov    -0xc(%rbp),%eax
    258c:	89 c7                	mov    %eax,%edi
    258e:	e8 f1 f5 ff ff       	callq  1b84 <bli_does_trans>
    2593:	84 c0                	test   %al,%al
    2595:	74 10                	je     25a7 <bli_is_strictly_above_diag+0x39>
    2597:	48 8b 45 f8          	mov    -0x8(%rbp),%rax
    259b:	48 f7 d8             	neg    %rax
    259e:	48 39 45 e0          	cmp    %rax,-0x20(%rbp)
    25a2:	0f 9e c0             	setle  %al
    25a5:	eb 0e                	jmp    25b5 <bli_is_strictly_above_diag+0x47>
    25a7:	48 8b 45 f8          	mov    -0x8(%rbp),%rax
    25ab:	48 f7 d8             	neg    %rax
    25ae:	48 39 45 e8          	cmp    %rax,-0x18(%rbp)
    25b2:	0f 9e c0             	setle  %al
    25b5:	c9                   	leaveq 
    25b6:	c3                   	retq   

00000000000025b7 <bli_is_strictly_below_diag>:
    25b7:	f3 0f 1e fa          	endbr64 
    25bb:	55                   	push   %rbp
    25bc:	48 89 e5             	mov    %rsp,%rbp
    25bf:	48 83 ec 20          	sub    $0x20,%rsp
    25c3:	48 89 7d f8          	mov    %rdi,-0x8(%rbp)
    25c7:	89 75 f4             	mov    %esi,-0xc(%rbp)
    25ca:	48 89 55 e8          	mov    %rdx,-0x18(%rbp)
    25ce:	48 89 4d e0          	mov    %rcx,-0x20(%rbp)
    25d2:	8b 45 f4             	mov    -0xc(%rbp),%eax
    25d5:	89 c7                	mov    %eax,%edi
    25d7:	e8 a8 f5 ff ff       	callq  1b84 <bli_does_trans>
    25dc:	84 c0                	test   %al,%al
    25de:	74 0d                	je     25ed <bli_is_strictly_below_diag+0x36>
    25e0:	48 8b 45 e8          	mov    -0x18(%rbp),%rax
    25e4:	48 3b 45 f8          	cmp    -0x8(%rbp),%rax
    25e8:	0f 9e c0             	setle  %al
    25eb:	eb 0b                	jmp    25f8 <bli_is_strictly_below_diag+0x41>
    25ed:	48 8b 45 e0          	mov    -0x20(%rbp),%rax
    25f1:	48 3b 45 f8          	cmp    -0x8(%rbp),%rax
    25f5:	0f 9e c0             	setle  %al
    25f8:	c9                   	leaveq 
    25f9:	c3                   	retq   

00000000000025fa <bli_is_outside_diag>:
    25fa:	f3 0f 1e fa          	endbr64 
    25fe:	55                   	push   %rbp
    25ff:	48 89 e5             	mov    %rsp,%rbp
    2602:	48 83 ec 20          	sub    $0x20,%rsp
    2606:	48 89 7d f8          	mov    %rdi,-0x8(%rbp)
    260a:	89 75 f4             	mov    %esi,-0xc(%rbp)
    260d:	48 89 55 e8          	mov    %rdx,-0x18(%rbp)
    2611:	48 89 4d e0          	mov    %rcx,-0x20(%rbp)
    2615:	48 8b 4d e0          	mov    -0x20(%rbp),%rcx
    2619:	48 8b 55 e8          	mov    -0x18(%rbp),%rdx
    261d:	8b 75 f4             	mov    -0xc(%rbp),%esi
    2620:	48 8b 45 f8          	mov    -0x8(%rbp),%rax
    2624:	48 89 c7             	mov    %rax,%rdi
    2627:	e8 42 ff ff ff       	callq  256e <bli_is_strictly_above_diag>
    262c:	84 c0                	test   %al,%al
    262e:	75 1b                	jne    264b <bli_is_outside_diag+0x51>
    2630:	48 8b 4d e0          	mov    -0x20(%rbp),%rcx
    2634:	48 8b 55 e8          	mov    -0x18(%rbp),%rdx
    2638:	8b 75 f4             	mov    -0xc(%rbp),%esi
    263b:	48 8b 45 f8          	mov    -0x8(%rbp),%rax
    263f:	48 89 c7             	mov    %rax,%rdi
    2642:	e8 70 ff ff ff       	callq  25b7 <bli_is_strictly_below_diag>
    2647:	84 c0                	test   %al,%al
    2649:	74 07                	je     2652 <bli_is_outside_diag+0x58>
    264b:	b8 01 00 00 00       	mov    $0x1,%eax
    2650:	eb 05                	jmp    2657 <bli_is_outside_diag+0x5d>
    2652:	b8 00 00 00 00       	mov    $0x0,%eax
    2657:	83 e0 01             	and    $0x1,%eax
    265a:	c9                   	leaveq 
    265b:	c3                   	retq   

000000000000265c <bli_is_stored_subpart>:
    265c:	f3 0f 1e fa          	endbr64 
    2660:	55                   	push   %rbp
    2661:	48 89 e5             	mov    %rsp,%rbp
    2664:	48 83 ec 20          	sub    $0x20,%rsp
    2668:	48 89 7d f8          	mov    %rdi,-0x8(%rbp)
    266c:	89 75 f4             	mov    %esi,-0xc(%rbp)
    266f:	89 55 f0             	mov    %edx,-0x10(%rbp)
    2672:	48 89 4d e8          	mov    %rcx,-0x18(%rbp)
    2676:	4c 89 45 e0          	mov    %r8,-0x20(%rbp)
    267a:	8b 45 f0             	mov    -0x10(%rbp),%eax
    267d:	89 c7                	mov    %eax,%edi
    267f:	e8 3d f6 ff ff       	callq  1cc1 <bli_is_upper>
    2684:	84 c0                	test   %al,%al
    2686:	74 1b                	je     26a3 <bli_is_stored_subpart+0x47>
    2688:	48 8b 4d e0          	mov    -0x20(%rbp),%rcx
    268c:	48 8b 55 e8          	mov    -0x18(%rbp),%rdx
    2690:	8b 75 f4             	mov    -0xc(%rbp),%esi
    2693:	48 8b 45 f8          	mov    -0x8(%rbp),%rax
    2697:	48 89 c7             	mov    %rax,%rdi
    269a:	e8 cf fe ff ff       	callq  256e <bli_is_strictly_above_diag>
    269f:	84 c0                	test   %al,%al
    26a1:	75 29                	jne    26cc <bli_is_stored_subpart+0x70>
    26a3:	8b 45 f0             	mov    -0x10(%rbp),%eax
    26a6:	89 c7                	mov    %eax,%edi
    26a8:	e8 fd f5 ff ff       	callq  1caa <bli_is_lower>
    26ad:	84 c0                	test   %al,%al
    26af:	74 22                	je     26d3 <bli_is_stored_subpart+0x77>
    26b1:	48 8b 4d e0          	mov    -0x20(%rbp),%rcx
    26b5:	48 8b 55 e8          	mov    -0x18(%rbp),%rdx
    26b9:	8b 75 f4             	mov    -0xc(%rbp),%esi
    26bc:	48 8b 45 f8          	mov    -0x8(%rbp),%rax
    26c0:	48 89 c7             	mov    %rax,%rdi
    26c3:	e8 ef fe ff ff       	callq  25b7 <bli_is_strictly_below_diag>
    26c8:	84 c0                	test   %al,%al
    26ca:	74 07                	je     26d3 <bli_is_stored_subpart+0x77>
    26cc:	b8 01 00 00 00       	mov    $0x1,%eax
    26d1:	eb 05                	jmp    26d8 <bli_is_stored_subpart+0x7c>
    26d3:	b8 00 00 00 00       	mov    $0x0,%eax
    26d8:	83 e0 01             	and    $0x1,%eax
    26db:	c9                   	leaveq 
    26dc:	c3                   	retq   

00000000000026dd <bli_is_unstored_subpart>:
    26dd:	f3 0f 1e fa          	endbr64 
    26e1:	55                   	push   %rbp
    26e2:	48 89 e5             	mov    %rsp,%rbp
    26e5:	48 83 ec 20          	sub    $0x20,%rsp
    26e9:	48 89 7d f8          	mov    %rdi,-0x8(%rbp)
    26ed:	89 75 f4             	mov    %esi,-0xc(%rbp)
    26f0:	89 55 f0             	mov    %edx,-0x10(%rbp)
    26f3:	48 89 4d e8          	mov    %rcx,-0x18(%rbp)
    26f7:	4c 89 45 e0          	mov    %r8,-0x20(%rbp)
    26fb:	8b 45 f0             	mov    -0x10(%rbp),%eax
    26fe:	89 c7                	mov    %eax,%edi
    2700:	e8 bc f5 ff ff       	callq  1cc1 <bli_is_upper>
    2705:	84 c0                	test   %al,%al
    2707:	74 1b                	je     2724 <bli_is_unstored_subpart+0x47>
    2709:	48 8b 4d e0          	mov    -0x20(%rbp),%rcx
    270d:	48 8b 55 e8          	mov    -0x18(%rbp),%rdx
    2711:	8b 75 f4             	mov    -0xc(%rbp),%esi
    2714:	48 8b 45 f8          	mov    -0x8(%rbp),%rax
    2718:	48 89 c7             	mov    %rax,%rdi
    271b:	e8 97 fe ff ff       	callq  25b7 <bli_is_strictly_below_diag>
    2720:	84 c0                	test   %al,%al
    2722:	75 29                	jne    274d <bli_is_unstored_subpart+0x70>
    2724:	8b 45 f0             	mov    -0x10(%rbp),%eax
    2727:	89 c7                	mov    %eax,%edi
    2729:	e8 7c f5 ff ff       	callq  1caa <bli_is_lower>
    272e:	84 c0                	test   %al,%al
    2730:	74 22                	je     2754 <bli_is_unstored_subpart+0x77>
    2732:	48 8b 4d e0          	mov    -0x20(%rbp),%rcx
    2736:	48 8b 55 e8          	mov    -0x18(%rbp),%rdx
    273a:	8b 75 f4             	mov    -0xc(%rbp),%esi
    273d:	48 8b 45 f8          	mov    -0x8(%rbp),%rax
    2741:	48 89 c7             	mov    %rax,%rdi
    2744:	e8 25 fe ff ff       	callq  256e <bli_is_strictly_above_diag>
    2749:	84 c0                	test   %al,%al
    274b:	74 07                	je     2754 <bli_is_unstored_subpart+0x77>
    274d:	b8 01 00 00 00       	mov    $0x1,%eax
    2752:	eb 05                	jmp    2759 <bli_is_unstored_subpart+0x7c>
    2754:	b8 00 00 00 00       	mov    $0x0,%eax
    2759:	83 e0 01             	and    $0x1,%eax
    275c:	c9                   	leaveq 
    275d:	c3                   	retq   

000000000000275e <bli_is_strictly_above_diag_n>:
    275e:	f3 0f 1e fa          	endbr64 
    2762:	55                   	push   %rbp
    2763:	48 89 e5             	mov    %rsp,%rbp
    2766:	48 89 7d f8          	mov    %rdi,-0x8(%rbp)
    276a:	48 89 75 f0          	mov    %rsi,-0x10(%rbp)
    276e:	48 89 55 e8          	mov    %rdx,-0x18(%rbp)
    2772:	48 8b 45 f8          	mov    -0x8(%rbp),%rax
    2776:	48 f7 d8             	neg    %rax
    2779:	48 39 45 f0          	cmp    %rax,-0x10(%rbp)
    277d:	0f 9e c0             	setle  %al
    2780:	5d                   	pop    %rbp
    2781:	c3                   	retq   

0000000000002782 <bli_is_strictly_below_diag_n>:
    2782:	f3 0f 1e fa          	endbr64 
    2786:	55                   	push   %rbp
    2787:	48 89 e5             	mov    %rsp,%rbp
    278a:	48 89 7d f8          	mov    %rdi,-0x8(%rbp)
    278e:	48 89 75 f0          	mov    %rsi,-0x10(%rbp)
    2792:	48 89 55 e8          	mov    %rdx,-0x18(%rbp)
    2796:	48 8b 45 e8          	mov    -0x18(%rbp),%rax
    279a:	48 3b 45 f8          	cmp    -0x8(%rbp),%rax
    279e:	0f 9e c0             	setle  %al
    27a1:	5d                   	pop    %rbp
    27a2:	c3                   	retq   

00000000000027a3 <bli_intersects_diag_n>:
    27a3:	f3 0f 1e fa          	endbr64 
    27a7:	55                   	push   %rbp
    27a8:	48 89 e5             	mov    %rsp,%rbp
    27ab:	48 83 ec 18          	sub    $0x18,%rsp
    27af:	48 89 7d f8          	mov    %rdi,-0x8(%rbp)
    27b3:	48 89 75 f0          	mov    %rsi,-0x10(%rbp)
    27b7:	48 89 55 e8          	mov    %rdx,-0x18(%rbp)
    27bb:	48 8b 55 e8          	mov    -0x18(%rbp),%rdx
    27bf:	48 8b 4d f0          	mov    -0x10(%rbp),%rcx
    27c3:	48 8b 45 f8          	mov    -0x8(%rbp),%rax
    27c7:	48 89 ce             	mov    %rcx,%rsi
    27ca:	48 89 c7             	mov    %rax,%rdi
    27cd:	e8 8c ff ff ff       	callq  275e <bli_is_strictly_above_diag_n>
    27d2:	83 f0 01             	xor    $0x1,%eax
    27d5:	84 c0                	test   %al,%al
    27d7:	74 25                	je     27fe <bli_intersects_diag_n+0x5b>
    27d9:	48 8b 55 e8          	mov    -0x18(%rbp),%rdx
    27dd:	48 8b 4d f0          	mov    -0x10(%rbp),%rcx
    27e1:	48 8b 45 f8          	mov    -0x8(%rbp),%rax
    27e5:	48 89 ce             	mov    %rcx,%rsi
    27e8:	48 89 c7             	mov    %rax,%rdi
    27eb:	e8 92 ff ff ff       	callq  2782 <bli_is_strictly_below_diag_n>
    27f0:	83 f0 01             	xor    $0x1,%eax
    27f3:	84 c0                	test   %al,%al
    27f5:	74 07                	je     27fe <bli_intersects_diag_n+0x5b>
    27f7:	b8 01 00 00 00       	mov    $0x1,%eax
    27fc:	eb 05                	jmp    2803 <bli_intersects_diag_n+0x60>
    27fe:	b8 00 00 00 00       	mov    $0x0,%eax
    2803:	83 e0 01             	and    $0x1,%eax
    2806:	c9                   	leaveq 
    2807:	c3                   	retq   

0000000000002808 <bli_is_outside_diag_n>:
    2808:	f3 0f 1e fa          	endbr64 
    280c:	55                   	push   %rbp
    280d:	48 89 e5             	mov    %rsp,%rbp
    2810:	48 83 ec 18          	sub    $0x18,%rsp
    2814:	48 89 7d f8          	mov    %rdi,-0x8(%rbp)
    2818:	48 89 75 f0          	mov    %rsi,-0x10(%rbp)
    281c:	48 89 55 e8          	mov    %rdx,-0x18(%rbp)
    2820:	48 8b 55 e8          	mov    -0x18(%rbp),%rdx
    2824:	48 8b 4d f0          	mov    -0x10(%rbp),%rcx
    2828:	48 8b 45 f8          	mov    -0x8(%rbp),%rax
    282c:	48 89 ce             	mov    %rcx,%rsi
    282f:	48 89 c7             	mov    %rax,%rdi
    2832:	e8 27 ff ff ff       	callq  275e <bli_is_strictly_above_diag_n>
    2837:	84 c0                	test   %al,%al
    2839:	75 1b                	jne    2856 <bli_is_outside_diag_n+0x4e>
    283b:	48 8b 55 e8          	mov    -0x18(%rbp),%rdx
    283f:	48 8b 4d f0          	mov    -0x10(%rbp),%rcx
    2843:	48 8b 45 f8          	mov    -0x8(%rbp),%rax
    2847:	48 89 ce             	mov    %rcx,%rsi
    284a:	48 89 c7             	mov    %rax,%rdi
    284d:	e8 30 ff ff ff       	callq  2782 <bli_is_strictly_below_diag_n>
    2852:	84 c0                	test   %al,%al
    2854:	74 07                	je     285d <bli_is_outside_diag_n+0x55>
    2856:	b8 01 00 00 00       	mov    $0x1,%eax
    285b:	eb 05                	jmp    2862 <bli_is_outside_diag_n+0x5a>
    285d:	b8 00 00 00 00       	mov    $0x0,%eax
    2862:	83 e0 01             	and    $0x1,%eax
    2865:	c9                   	leaveq 
    2866:	c3                   	retq   

0000000000002867 <bli_is_stored_subpart_n>:
    2867:	f3 0f 1e fa          	endbr64 
    286b:	55                   	push   %rbp
    286c:	48 89 e5             	mov    %rsp,%rbp
    286f:	48 83 ec 20          	sub    $0x20,%rsp
    2873:	48 89 7d f8          	mov    %rdi,-0x8(%rbp)
    2877:	89 75 f4             	mov    %esi,-0xc(%rbp)
    287a:	48 89 55 e8          	mov    %rdx,-0x18(%rbp)
    287e:	48 89 4d e0          	mov    %rcx,-0x20(%rbp)
    2882:	8b 45 f4             	mov    -0xc(%rbp),%eax
    2885:	89 c7                	mov    %eax,%edi
    2887:	e8 35 f4 ff ff       	callq  1cc1 <bli_is_upper>
    288c:	84 c0                	test   %al,%al
    288e:	74 1b                	je     28ab <bli_is_stored_subpart_n+0x44>
    2890:	48 8b 55 e0          	mov    -0x20(%rbp),%rdx
    2894:	48 8b 4d e8          	mov    -0x18(%rbp),%rcx
    2898:	48 8b 45 f8          	mov    -0x8(%rbp),%rax
    289c:	48 89 ce             	mov    %rcx,%rsi
    289f:	48 89 c7             	mov    %rax,%rdi
    28a2:	e8 b7 fe ff ff       	callq  275e <bli_is_strictly_above_diag_n>
    28a7:	84 c0                	test   %al,%al
    28a9:	75 29                	jne    28d4 <bli_is_stored_subpart_n+0x6d>
    28ab:	8b 45 f4             	mov    -0xc(%rbp),%eax
    28ae:	89 c7                	mov    %eax,%edi
    28b0:	e8 f5 f3 ff ff       	callq  1caa <bli_is_lower>
    28b5:	84 c0                	test   %al,%al
    28b7:	74 22                	je     28db <bli_is_stored_subpart_n+0x74>
    28b9:	48 8b 55 e0          	mov    -0x20(%rbp),%rdx
    28bd:	48 8b 4d e8          	mov    -0x18(%rbp),%rcx
    28c1:	48 8b 45 f8          	mov    -0x8(%rbp),%rax
    28c5:	48 89 ce             	mov    %rcx,%rsi
    28c8:	48 89 c7             	mov    %rax,%rdi
    28cb:	e8 b2 fe ff ff       	callq  2782 <bli_is_strictly_below_diag_n>
    28d0:	84 c0                	test   %al,%al
    28d2:	74 07                	je     28db <bli_is_stored_subpart_n+0x74>
    28d4:	b8 01 00 00 00       	mov    $0x1,%eax
    28d9:	eb 05                	jmp    28e0 <bli_is_stored_subpart_n+0x79>
    28db:	b8 00 00 00 00       	mov    $0x0,%eax
    28e0:	83 e0 01             	and    $0x1,%eax
    28e3:	c9                   	leaveq 
    28e4:	c3                   	retq   

00000000000028e5 <bli_is_unstored_subpart_n>:
    28e5:	f3 0f 1e fa          	endbr64 
    28e9:	55                   	push   %rbp
    28ea:	48 89 e5             	mov    %rsp,%rbp
    28ed:	48 83 ec 20          	sub    $0x20,%rsp
    28f1:	48 89 7d f8          	mov    %rdi,-0x8(%rbp)
    28f5:	89 75 f4             	mov    %esi,-0xc(%rbp)
    28f8:	48 89 55 e8          	mov    %rdx,-0x18(%rbp)
    28fc:	48 89 4d e0          	mov    %rcx,-0x20(%rbp)
    2900:	8b 45 f4             	mov    -0xc(%rbp),%eax
    2903:	89 c7                	mov    %eax,%edi
    2905:	e8 b7 f3 ff ff       	callq  1cc1 <bli_is_upper>
    290a:	84 c0                	test   %al,%al
    290c:	74 1b                	je     2929 <bli_is_unstored_subpart_n+0x44>
    290e:	48 8b 55 e0          	mov    -0x20(%rbp),%rdx
    2912:	48 8b 4d e8          	mov    -0x18(%rbp),%rcx
    2916:	48 8b 45 f8          	mov    -0x8(%rbp),%rax
    291a:	48 89 ce             	mov    %rcx,%rsi
    291d:	48 89 c7             	mov    %rax,%rdi
    2920:	e8 5d fe ff ff       	callq  2782 <bli_is_strictly_below_diag_n>
    2925:	84 c0                	test   %al,%al
    2927:	75 29                	jne    2952 <bli_is_unstored_subpart_n+0x6d>
    2929:	8b 45 f4             	mov    -0xc(%rbp),%eax
    292c:	89 c7                	mov    %eax,%edi
    292e:	e8 77 f3 ff ff       	callq  1caa <bli_is_lower>
    2933:	84 c0                	test   %al,%al
    2935:	74 22                	je     2959 <bli_is_unstored_subpart_n+0x74>
    2937:	48 8b 55 e0          	mov    -0x20(%rbp),%rdx
    293b:	48 8b 4d e8          	mov    -0x18(%rbp),%rcx
    293f:	48 8b 45 f8          	mov    -0x8(%rbp),%rax
    2943:	48 89 ce             	mov    %rcx,%rsi
    2946:	48 89 c7             	mov    %rax,%rdi
    2949:	e8 10 fe ff ff       	callq  275e <bli_is_strictly_above_diag_n>
    294e:	84 c0                	test   %al,%al
    2950:	74 07                	je     2959 <bli_is_unstored_subpart_n+0x74>
    2952:	b8 01 00 00 00       	mov    $0x1,%eax
    2957:	eb 05                	jmp    295e <bli_is_unstored_subpart_n+0x79>
    2959:	b8 00 00 00 00       	mov    $0x0,%eax
    295e:	83 e0 01             	and    $0x1,%eax
    2961:	c9                   	leaveq 
    2962:	c3                   	retq   

0000000000002963 <bli_prune_unstored_region_top_l>:
    2963:	f3 0f 1e fa          	endbr64 
    2967:	55                   	push   %rbp
    2968:	48 89 e5             	mov    %rsp,%rbp
    296b:	48 89 7d f8          	mov    %rdi,-0x8(%rbp)
    296f:	48 89 75 f0          	mov    %rsi,-0x10(%rbp)
    2973:	48 89 55 e8          	mov    %rdx,-0x18(%rbp)
    2977:	48 89 4d e0          	mov    %rcx,-0x20(%rbp)
    297b:	48 8b 45 e0          	mov    -0x20(%rbp),%rax
    297f:	48 c7 00 00 00 00 00 	movq   $0x0,(%rax)
    2986:	48 8b 45 f8          	mov    -0x8(%rbp),%rax
    298a:	48 8b 00             	mov    (%rax),%rax
    298d:	48 85 c0             	test   %rax,%rax
    2990:	79 37                	jns    29c9 <bli_prune_unstored_region_top_l+0x66>
    2992:	48 8b 45 f0          	mov    -0x10(%rbp),%rax
    2996:	48 8b 10             	mov    (%rax),%rdx
    2999:	48 8b 45 f8          	mov    -0x8(%rbp),%rax
    299d:	48 8b 00             	mov    (%rax),%rax
    29a0:	48 01 c2             	add    %rax,%rdx
    29a3:	48 8b 45 f0          	mov    -0x10(%rbp),%rax
    29a7:	48 89 10             	mov    %rdx,(%rax)
    29aa:	48 8b 45 f8          	mov    -0x8(%rbp),%rax
    29ae:	48 8b 00             	mov    (%rax),%rax
    29b1:	48 f7 d8             	neg    %rax
    29b4:	48 89 c2             	mov    %rax,%rdx
    29b7:	48 8b 45 e0          	mov    -0x20(%rbp),%rax
    29bb:	48 89 10             	mov    %rdx,(%rax)
    29be:	48 8b 45 f8          	mov    -0x8(%rbp),%rax
    29c2:	48 c7 00 00 00 00 00 	movq   $0x0,(%rax)
    29c9:	90                   	nop
    29ca:	5d                   	pop    %rbp
    29cb:	c3                   	retq   

00000000000029cc <bli_prune_unstored_region_right_l>:
    29cc:	f3 0f 1e fa          	endbr64 
    29d0:	55                   	push   %rbp
    29d1:	48 89 e5             	mov    %rsp,%rbp
    29d4:	48 89 7d f8          	mov    %rdi,-0x8(%rbp)
    29d8:	48 89 75 f0          	mov    %rsi,-0x10(%rbp)
    29dc:	48 89 55 e8          	mov    %rdx,-0x18(%rbp)
    29e0:	48 89 4d e0          	mov    %rcx,-0x20(%rbp)
    29e4:	48 8b 45 e0          	mov    -0x20(%rbp),%rax
    29e8:	48 c7 00 00 00 00 00 	movq   $0x0,(%rax)
    29ef:	48 8b 45 e8          	mov    -0x18(%rbp),%rax
    29f3:	48 8b 10             	mov    (%rax),%rdx
    29f6:	48 8b 45 f8          	mov    -0x8(%rbp),%rax
    29fa:	48 8b 08             	mov    (%rax),%rcx
    29fd:	48 8b 45 f0          	mov    -0x10(%rbp),%rax
    2a01:	48 8b 00             	mov    (%rax),%rax
    2a04:	48 01 c8             	add    %rcx,%rax
    2a07:	48 39 c2             	cmp    %rax,%rdx
    2a0a:	7e 18                	jle    2a24 <bli_prune_unstored_region_right_l+0x58>
    2a0c:	48 8b 45 f8          	mov    -0x8(%rbp),%rax
    2a10:	48 8b 10             	mov    (%rax),%rdx
    2a13:	48 8b 45 f0          	mov    -0x10(%rbp),%rax
    2a17:	48 8b 00             	mov    (%rax),%rax
    2a1a:	48 01 c2             	add    %rax,%rdx
    2a1d:	48 8b 45 e8          	mov    -0x18(%rbp),%rax
    2a21:	48 89 10             	mov    %rdx,(%rax)
    2a24:	90                   	nop
    2a25:	5d                   	pop    %rbp
    2a26:	c3                   	retq   

0000000000002a27 <bli_prune_unstored_region_left_u>:
    2a27:	f3 0f 1e fa          	endbr64 
    2a2b:	55                   	push   %rbp
    2a2c:	48 89 e5             	mov    %rsp,%rbp
    2a2f:	48 89 7d f8          	mov    %rdi,-0x8(%rbp)
    2a33:	48 89 75 f0          	mov    %rsi,-0x10(%rbp)
    2a37:	48 89 55 e8          	mov    %rdx,-0x18(%rbp)
    2a3b:	48 89 4d e0          	mov    %rcx,-0x20(%rbp)
    2a3f:	48 8b 45 e0          	mov    -0x20(%rbp),%rax
    2a43:	48 c7 00 00 00 00 00 	movq   $0x0,(%rax)
    2a4a:	48 8b 45 f8          	mov    -0x8(%rbp),%rax
    2a4e:	48 8b 00             	mov    (%rax),%rax
    2a51:	48 85 c0             	test   %rax,%rax
    2a54:	7e 31                	jle    2a87 <bli_prune_unstored_region_left_u+0x60>
    2a56:	48 8b 45 e8          	mov    -0x18(%rbp),%rax
    2a5a:	48 8b 10             	mov    (%rax),%rdx
    2a5d:	48 8b 45 f8          	mov    -0x8(%rbp),%rax
    2a61:	48 8b 00             	mov    (%rax),%rax
    2a64:	48 29 c2             	sub    %rax,%rdx
    2a67:	48 8b 45 e8          	mov    -0x18(%rbp),%rax
    2a6b:	48 89 10             	mov    %rdx,(%rax)
    2a6e:	48 8b 45 f8          	mov    -0x8(%rbp),%rax
    2a72:	48 8b 10             	mov    (%rax),%rdx
    2a75:	48 8b 45 e0          	mov    -0x20(%rbp),%rax
    2a79:	48 89 10             	mov    %rdx,(%rax)
    2a7c:	48 8b 45 f8          	mov    -0x8(%rbp),%rax
    2a80:	48 c7 00 00 00 00 00 	movq   $0x0,(%rax)
    2a87:	90                   	nop
    2a88:	5d                   	pop    %rbp
    2a89:	c3                   	retq   

0000000000002a8a <bli_prune_unstored_region_bottom_u>:
    2a8a:	f3 0f 1e fa          	endbr64 
    2a8e:	55                   	push   %rbp
    2a8f:	48 89 e5             	mov    %rsp,%rbp
    2a92:	48 89 7d f8          	mov    %rdi,-0x8(%rbp)
    2a96:	48 89 75 f0          	mov    %rsi,-0x10(%rbp)
    2a9a:	48 89 55 e8          	mov    %rdx,-0x18(%rbp)
    2a9e:	48 89 4d e0          	mov    %rcx,-0x20(%rbp)
    2aa2:	48 8b 45 e0          	mov    -0x20(%rbp),%rax
    2aa6:	48 c7 00 00 00 00 00 	movq   $0x0,(%rax)
    2aad:	48 8b 45 f0          	mov    -0x10(%rbp),%rax
    2ab1:	48 8b 10             	mov    (%rax),%rdx
    2ab4:	48 8b 45 e8          	mov    -0x18(%rbp),%rax
    2ab8:	48 8b 08             	mov    (%rax),%rcx
    2abb:	48 8b 45 f8          	mov    -0x8(%rbp),%rax
    2abf:	48 8b 00             	mov    (%rax),%rax
    2ac2:	48 29 c1             	sub    %rax,%rcx
    2ac5:	48 89 c8             	mov    %rcx,%rax
    2ac8:	48 39 c2             	cmp    %rax,%rdx
    2acb:	7e 18                	jle    2ae5 <bli_prune_unstored_region_bottom_u+0x5b>
    2acd:	48 8b 45 e8          	mov    -0x18(%rbp),%rax
    2ad1:	48 8b 10             	mov    (%rax),%rdx
    2ad4:	48 8b 45 f8          	mov    -0x8(%rbp),%rax
    2ad8:	48 8b 00             	mov    (%rax),%rax
    2adb:	48 29 c2             	sub    %rax,%rdx
    2ade:	48 8b 45 f0          	mov    -0x10(%rbp),%rax
    2ae2:	48 89 10             	mov    %rdx,(%rax)
    2ae5:	90                   	nop
    2ae6:	5d                   	pop    %rbp
    2ae7:	c3                   	retq   

0000000000002ae8 <bli_rotate180_trapezoid>:
    2ae8:	f3 0f 1e fa          	endbr64 
    2aec:	55                   	push   %rbp
    2aed:	48 89 e5             	mov    %rsp,%rbp
    2af0:	48 83 ec 20          	sub    $0x20,%rsp
    2af4:	48 89 7d f8          	mov    %rdi,-0x8(%rbp)
    2af8:	48 89 75 f0          	mov    %rsi,-0x10(%rbp)
    2afc:	48 89 55 e8          	mov    %rdx,-0x18(%rbp)
    2b00:	48 89 4d e0          	mov    %rcx,-0x20(%rbp)
    2b04:	48 8b 45 e0          	mov    -0x20(%rbp),%rax
    2b08:	48 8b 10             	mov    (%rax),%rdx
    2b0b:	48 8b 45 f8          	mov    -0x8(%rbp),%rax
    2b0f:	48 8b 00             	mov    (%rax),%rax
    2b12:	48 29 c2             	sub    %rax,%rdx
    2b15:	48 8b 45 e8          	mov    -0x18(%rbp),%rax
    2b19:	48 8b 00             	mov    (%rax),%rax
    2b1c:	48 29 c2             	sub    %rax,%rdx
    2b1f:	48 8b 45 f8          	mov    -0x8(%rbp),%rax
    2b23:	48 89 10             	mov    %rdx,(%rax)
    2b26:	48 8b 45 f0          	mov    -0x10(%rbp),%rax
    2b2a:	48 89 c7             	mov    %rax,%rdi
    2b2d:	e8 33 f2 ff ff       	callq  1d65 <bli_toggle_uplo>
    2b32:	90                   	nop
    2b33:	c9                   	leaveq 
    2b34:	c3                   	retq   

0000000000002b35 <bli_reflect_about_diag>:
    2b35:	f3 0f 1e fa          	endbr64 
    2b39:	55                   	push   %rbp
    2b3a:	48 89 e5             	mov    %rsp,%rbp
    2b3d:	48 83 ec 20          	sub    $0x20,%rsp
    2b41:	48 89 7d f8          	mov    %rdi,-0x8(%rbp)
    2b45:	48 89 75 f0          	mov    %rsi,-0x10(%rbp)
    2b49:	48 89 55 e8          	mov    %rdx,-0x18(%rbp)
    2b4d:	48 89 4d e0          	mov    %rcx,-0x20(%rbp)
    2b51:	48 8b 55 e0          	mov    -0x20(%rbp),%rdx
    2b55:	48 8b 45 e8          	mov    -0x18(%rbp),%rax
    2b59:	48 89 d6             	mov    %rdx,%rsi
    2b5c:	48 89 c7             	mov    %rax,%rdi
    2b5f:	e8 74 ec ff ff       	callq  17d8 <bli_swap_dims>
    2b64:	48 8b 45 f8          	mov    -0x8(%rbp),%rax
    2b68:	48 89 c7             	mov    %rax,%rdi
    2b6b:	e8 fb f8 ff ff       	callq  246b <bli_negate_diag_offset>
    2b70:	48 8b 45 f0          	mov    -0x10(%rbp),%rax
    2b74:	48 89 c7             	mov    %rax,%rdi
    2b77:	e8 e9 f1 ff ff       	callq  1d65 <bli_toggle_uplo>
    2b7c:	90                   	nop
    2b7d:	c9                   	leaveq 
    2b7e:	c3                   	retq   

0000000000002b7f <bli_reverse_index_direction>:
    2b7f:	f3 0f 1e fa          	endbr64 
    2b83:	55                   	push   %rbp
    2b84:	48 89 e5             	mov    %rsp,%rbp
    2b87:	48 89 7d e8          	mov    %rdi,-0x18(%rbp)
    2b8b:	48 89 75 e0          	mov    %rsi,-0x20(%rbp)
    2b8f:	48 89 55 d8          	mov    %rdx,-0x28(%rbp)
    2b93:	48 8b 45 e0          	mov    -0x20(%rbp),%rax
    2b97:	48 8b 00             	mov    (%rax),%rax
    2b9a:	48 8b 55 e8          	mov    -0x18(%rbp),%rdx
    2b9e:	48 29 c2             	sub    %rax,%rdx
    2ba1:	48 89 d0             	mov    %rdx,%rax
    2ba4:	48 89 45 f0          	mov    %rax,-0x10(%rbp)
    2ba8:	48 8b 45 d8          	mov    -0x28(%rbp),%rax
    2bac:	48 8b 00             	mov    (%rax),%rax
    2baf:	48 8b 55 e8          	mov    -0x18(%rbp),%rdx
    2bb3:	48 29 c2             	sub    %rax,%rdx
    2bb6:	48 89 d0             	mov    %rdx,%rax
    2bb9:	48 89 45 f8          	mov    %rax,-0x8(%rbp)
    2bbd:	48 8b 45 e0          	mov    -0x20(%rbp),%rax
    2bc1:	48 8b 55 f8          	mov    -0x8(%rbp),%rdx
    2bc5:	48 89 10             	mov    %rdx,(%rax)
    2bc8:	48 8b 45 d8          	mov    -0x28(%rbp),%rax
    2bcc:	48 8b 55 f0          	mov    -0x10(%rbp),%rdx
    2bd0:	48 89 10             	mov    %rdx,(%rax)
    2bd3:	90                   	nop
    2bd4:	5d                   	pop    %rbp
    2bd5:	c3                   	retq   

0000000000002bd6 <bli_is_m_dim>:
    2bd6:	f3 0f 1e fa          	endbr64 
    2bda:	55                   	push   %rbp
    2bdb:	48 89 e5             	mov    %rsp,%rbp
    2bde:	89 7d fc             	mov    %edi,-0x4(%rbp)
    2be1:	83 7d fc 00          	cmpl   $0x0,-0x4(%rbp)
    2be5:	0f 94 c0             	sete   %al
    2be8:	5d                   	pop    %rbp
    2be9:	c3                   	retq   

0000000000002bea <bli_is_n_dim>:
    2bea:	f3 0f 1e fa          	endbr64 
    2bee:	55                   	push   %rbp
    2bef:	48 89 e5             	mov    %rsp,%rbp
    2bf2:	89 7d fc             	mov    %edi,-0x4(%rbp)
    2bf5:	83 7d fc 01          	cmpl   $0x1,-0x4(%rbp)
    2bf9:	0f 94 c0             	sete   %al
    2bfc:	5d                   	pop    %rbp
    2bfd:	c3                   	retq   

0000000000002bfe <bli_dim_toggled>:
    2bfe:	f3 0f 1e fa          	endbr64 
    2c02:	55                   	push   %rbp
    2c03:	48 89 e5             	mov    %rsp,%rbp
    2c06:	89 7d fc             	mov    %edi,-0x4(%rbp)
    2c09:	83 7d fc 00          	cmpl   $0x0,-0x4(%rbp)
    2c0d:	75 07                	jne    2c16 <bli_dim_toggled+0x18>
    2c0f:	b8 01 00 00 00       	mov    $0x1,%eax
    2c14:	eb 05                	jmp    2c1b <bli_dim_toggled+0x1d>
    2c16:	b8 00 00 00 00       	mov    $0x0,%eax
    2c1b:	5d                   	pop    %rbp
    2c1c:	c3                   	retq   

0000000000002c1d <bli_toggle_dim>:
    2c1d:	f3 0f 1e fa          	endbr64 
    2c21:	55                   	push   %rbp
    2c22:	48 89 e5             	mov    %rsp,%rbp
    2c25:	48 83 ec 08          	sub    $0x8,%rsp
    2c29:	48 89 7d f8          	mov    %rdi,-0x8(%rbp)
    2c2d:	48 8b 45 f8          	mov    -0x8(%rbp),%rax
    2c31:	8b 00                	mov    (%rax),%eax
    2c33:	89 c7                	mov    %eax,%edi
    2c35:	e8 c4 ff ff ff       	callq  2bfe <bli_dim_toggled>
    2c3a:	48 8b 55 f8          	mov    -0x8(%rbp),%rdx
    2c3e:	89 02                	mov    %eax,(%rdx)
    2c40:	90                   	nop
    2c41:	c9                   	leaveq 
    2c42:	c3                   	retq   

0000000000002c43 <bli_stor3_from_strides>:
    2c43:	f3 0f 1e fa          	endbr64 
    2c47:	55                   	push   %rbp
    2c48:	48 89 e5             	mov    %rsp,%rbp
    2c4b:	48 83 ec 40          	sub    $0x40,%rsp
    2c4f:	48 89 7d e8          	mov    %rdi,-0x18(%rbp)
    2c53:	48 89 75 e0          	mov    %rsi,-0x20(%rbp)
    2c57:	48 89 55 d8          	mov    %rdx,-0x28(%rbp)
    2c5b:	48 89 4d d0          	mov    %rcx,-0x30(%rbp)
    2c5f:	4c 89 45 c8          	mov    %r8,-0x38(%rbp)
    2c63:	4c 89 4d c0          	mov    %r9,-0x40(%rbp)
    2c67:	48 8b 55 e0          	mov    -0x20(%rbp),%rdx
    2c6b:	48 8b 45 e8          	mov    -0x18(%rbp),%rax
    2c6f:	48 89 d6             	mov    %rdx,%rsi
    2c72:	48 89 c7             	mov    %rax,%rdi
    2c75:	e8 25 f6 ff ff       	callq  229f <bli_is_gen_stored>
    2c7a:	84 c0                	test   %al,%al
    2c7c:	75 2e                	jne    2cac <bli_stor3_from_strides+0x69>
    2c7e:	48 8b 55 d0          	mov    -0x30(%rbp),%rdx
    2c82:	48 8b 45 d8          	mov    -0x28(%rbp),%rax
    2c86:	48 89 d6             	mov    %rdx,%rsi
    2c89:	48 89 c7             	mov    %rax,%rdi
    2c8c:	e8 0e f6 ff ff       	callq  229f <bli_is_gen_stored>
    2c91:	84 c0                	test   %al,%al
    2c93:	75 17                	jne    2cac <bli_stor3_from_strides+0x69>
    2c95:	48 8b 55 c0          	mov    -0x40(%rbp),%rdx
    2c99:	48 8b 45 c8          	mov    -0x38(%rbp),%rax
    2c9d:	48 89 d6             	mov    %rdx,%rsi
    2ca0:	48 89 c7             	mov    %rax,%rdi
    2ca3:	e8 f7 f5 ff ff       	callq  229f <bli_is_gen_stored>
    2ca8:	84 c0                	test   %al,%al
    2caa:	74 07                	je     2cb3 <bli_stor3_from_strides+0x70>
    2cac:	b8 08 00 00 00       	mov    $0x8,%eax
    2cb1:	eb 58                	jmp    2d0b <bli_stor3_from_strides+0xc8>
    2cb3:	48 8b 55 e0          	mov    -0x20(%rbp),%rdx
    2cb7:	48 8b 45 e8          	mov    -0x18(%rbp),%rax
    2cbb:	48 89 d6             	mov    %rdx,%rsi
    2cbe:	48 89 c7             	mov    %rax,%rdi
    2cc1:	e8 34 f5 ff ff       	callq  21fa <bli_is_col_stored>
    2cc6:	88 45 fd             	mov    %al,-0x3(%rbp)
    2cc9:	48 8b 55 d0          	mov    -0x30(%rbp),%rdx
    2ccd:	48 8b 45 d8          	mov    -0x28(%rbp),%rax
    2cd1:	48 89 d6             	mov    %rdx,%rsi
    2cd4:	48 89 c7             	mov    %rax,%rdi
    2cd7:	e8 1e f5 ff ff       	callq  21fa <bli_is_col_stored>
    2cdc:	88 45 fe             	mov    %al,-0x2(%rbp)
    2cdf:	48 8b 55 c0          	mov    -0x40(%rbp),%rdx
    2ce3:	48 8b 45 c8          	mov    -0x38(%rbp),%rax
    2ce7:	48 89 d6             	mov    %rdx,%rsi
    2cea:	48 89 c7             	mov    %rax,%rdi
    2ced:	e8 08 f5 ff ff       	callq  21fa <bli_is_col_stored>
    2cf2:	88 45 ff             	mov    %al,-0x1(%rbp)
    2cf5:	0f b6 45 fd          	movzbl -0x3(%rbp),%eax
    2cf9:	8d 14 00             	lea    (%rax,%rax,1),%edx
    2cfc:	0f b6 45 fe          	movzbl -0x2(%rbp),%eax
    2d00:	01 d0                	add    %edx,%eax
    2d02:	8d 14 00             	lea    (%rax,%rax,1),%edx
    2d05:	0f b6 45 ff          	movzbl -0x1(%rbp),%eax
    2d09:	01 d0                	add    %edx,%eax
    2d0b:	c9                   	leaveq 
    2d0c:	c3                   	retq   

0000000000002d0d <bli_stor3_trans>:
    2d0d:	f3 0f 1e fa          	endbr64 
    2d11:	55                   	push   %rbp
    2d12:	48 89 e5             	mov    %rsp,%rbp
    2d15:	48 83 ec 40          	sub    $0x40,%rsp
    2d19:	89 7d cc             	mov    %edi,-0x34(%rbp)
    2d1c:	64 48 8b 04 25 28 00 	mov    %fs:0x28,%rax
    2d23:	00 00 
    2d25:	48 89 45 f8          	mov    %rax,-0x8(%rbp)
    2d29:	31 c0                	xor    %eax,%eax
    2d2b:	48 c7 45 d0 00 00 00 	movq   $0x0,-0x30(%rbp)
    2d32:	00 
    2d33:	48 c7 45 d8 00 00 00 	movq   $0x0,-0x28(%rbp)
    2d3a:	00 
    2d3b:	48 c7 45 e0 00 00 00 	movq   $0x0,-0x20(%rbp)
    2d42:	00 
    2d43:	48 c7 45 e8 00 00 00 	movq   $0x0,-0x18(%rbp)
    2d4a:	00 
    2d4b:	c7 45 f0 00 00 00 00 	movl   $0x0,-0x10(%rbp)
    2d52:	c7 45 d0 07 00 00 00 	movl   $0x7,-0x30(%rbp)
    2d59:	c7 45 d4 05 00 00 00 	movl   $0x5,-0x2c(%rbp)
    2d60:	c7 45 d8 06 00 00 00 	movl   $0x6,-0x28(%rbp)
    2d67:	c7 45 dc 04 00 00 00 	movl   $0x4,-0x24(%rbp)
    2d6e:	c7 45 e0 03 00 00 00 	movl   $0x3,-0x20(%rbp)
    2d75:	c7 45 e4 01 00 00 00 	movl   $0x1,-0x1c(%rbp)
    2d7c:	c7 45 e8 02 00 00 00 	movl   $0x2,-0x18(%rbp)
    2d83:	8b 45 cc             	mov    -0x34(%rbp),%eax
    2d86:	8b 44 85 d0          	mov    -0x30(%rbp,%rax,4),%eax
    2d8a:	48 8b 55 f8          	mov    -0x8(%rbp),%rdx
    2d8e:	64 48 33 14 25 28 00 	xor    %fs:0x28,%rdx
    2d95:	00 00 
    2d97:	74 05                	je     2d9e <bli_stor3_trans+0x91>
    2d99:	e8 b2 e4 ff ff       	callq  1250 <__stack_chk_fail@plt>
    2d9e:	c9                   	leaveq 
    2d9f:	c3                   	retq   

0000000000002da0 <bli_stor3_transa>:
    2da0:	f3 0f 1e fa          	endbr64 
    2da4:	55                   	push   %rbp
    2da5:	48 89 e5             	mov    %rsp,%rbp
    2da8:	89 7d fc             	mov    %edi,-0x4(%rbp)
    2dab:	8b 45 fc             	mov    -0x4(%rbp),%eax
    2dae:	83 f0 01             	xor    $0x1,%eax
    2db1:	5d                   	pop    %rbp
    2db2:	c3                   	retq   

0000000000002db3 <bli_stor3_transb>:
    2db3:	f3 0f 1e fa          	endbr64 
    2db7:	55                   	push   %rbp
    2db8:	48 89 e5             	mov    %rsp,%rbp
    2dbb:	89 7d fc             	mov    %edi,-0x4(%rbp)
    2dbe:	8b 45 fc             	mov    -0x4(%rbp),%eax
    2dc1:	83 f0 02             	xor    $0x2,%eax
    2dc4:	5d                   	pop    %rbp
    2dc5:	c3                   	retq   

0000000000002dc6 <bli_is_edge_f>:
    2dc6:	f3 0f 1e fa          	endbr64 
    2dca:	55                   	push   %rbp
    2dcb:	48 89 e5             	mov    %rsp,%rbp
    2dce:	48 89 7d f8          	mov    %rdi,-0x8(%rbp)
    2dd2:	48 89 75 f0          	mov    %rsi,-0x10(%rbp)
    2dd6:	48 89 55 e8          	mov    %rdx,-0x18(%rbp)
    2dda:	48 8b 45 f0          	mov    -0x10(%rbp),%rax
    2dde:	48 83 e8 01          	sub    $0x1,%rax
    2de2:	48 39 45 f8          	cmp    %rax,-0x8(%rbp)
    2de6:	75 0e                	jne    2df6 <bli_is_edge_f+0x30>
    2de8:	48 83 7d e8 00       	cmpq   $0x0,-0x18(%rbp)
    2ded:	74 07                	je     2df6 <bli_is_edge_f+0x30>
    2def:	b8 01 00 00 00       	mov    $0x1,%eax
    2df4:	eb 05                	jmp    2dfb <bli_is_edge_f+0x35>
    2df6:	b8 00 00 00 00       	mov    $0x0,%eax
    2dfb:	83 e0 01             	and    $0x1,%eax
    2dfe:	5d                   	pop    %rbp
    2dff:	c3                   	retq   

0000000000002e00 <bli_is_not_edge_f>:
    2e00:	f3 0f 1e fa          	endbr64 
    2e04:	55                   	push   %rbp
    2e05:	48 89 e5             	mov    %rsp,%rbp
    2e08:	48 89 7d f8          	mov    %rdi,-0x8(%rbp)
    2e0c:	48 89 75 f0          	mov    %rsi,-0x10(%rbp)
    2e10:	48 89 55 e8          	mov    %rdx,-0x18(%rbp)
    2e14:	48 8b 45 f0          	mov    -0x10(%rbp),%rax
    2e18:	48 83 e8 01          	sub    $0x1,%rax
    2e1c:	48 39 45 f8          	cmp    %rax,-0x8(%rbp)
    2e20:	75 07                	jne    2e29 <bli_is_not_edge_f+0x29>
    2e22:	48 83 7d e8 00       	cmpq   $0x0,-0x18(%rbp)
    2e27:	75 07                	jne    2e30 <bli_is_not_edge_f+0x30>
    2e29:	b8 01 00 00 00       	mov    $0x1,%eax
    2e2e:	eb 05                	jmp    2e35 <bli_is_not_edge_f+0x35>
    2e30:	b8 00 00 00 00       	mov    $0x0,%eax
    2e35:	83 e0 01             	and    $0x1,%eax
    2e38:	5d                   	pop    %rbp
    2e39:	c3                   	retq   

0000000000002e3a <bli_is_edge_b>:
    2e3a:	f3 0f 1e fa          	endbr64 
    2e3e:	55                   	push   %rbp
    2e3f:	48 89 e5             	mov    %rsp,%rbp
    2e42:	48 89 7d f8          	mov    %rdi,-0x8(%rbp)
    2e46:	48 89 75 f0          	mov    %rsi,-0x10(%rbp)
    2e4a:	48 89 55 e8          	mov    %rdx,-0x18(%rbp)
    2e4e:	48 83 7d f8 00       	cmpq   $0x0,-0x8(%rbp)
    2e53:	75 0e                	jne    2e63 <bli_is_edge_b+0x29>
    2e55:	48 83 7d e8 00       	cmpq   $0x0,-0x18(%rbp)
    2e5a:	74 07                	je     2e63 <bli_is_edge_b+0x29>
    2e5c:	b8 01 00 00 00       	mov    $0x1,%eax
    2e61:	eb 05                	jmp    2e68 <bli_is_edge_b+0x2e>
    2e63:	b8 00 00 00 00       	mov    $0x0,%eax
    2e68:	83 e0 01             	and    $0x1,%eax
    2e6b:	5d                   	pop    %rbp
    2e6c:	c3                   	retq   

0000000000002e6d <bli_is_not_edge_b>:
    2e6d:	f3 0f 1e fa          	endbr64 
    2e71:	55                   	push   %rbp
    2e72:	48 89 e5             	mov    %rsp,%rbp
    2e75:	48 89 7d f8          	mov    %rdi,-0x8(%rbp)
    2e79:	48 89 75 f0          	mov    %rsi,-0x10(%rbp)
    2e7d:	48 89 55 e8          	mov    %rdx,-0x18(%rbp)
    2e81:	48 83 7d f8 00       	cmpq   $0x0,-0x8(%rbp)
    2e86:	75 07                	jne    2e8f <bli_is_not_edge_b+0x22>
    2e88:	48 83 7d e8 00       	cmpq   $0x0,-0x18(%rbp)
    2e8d:	75 07                	jne    2e96 <bli_is_not_edge_b+0x29>
    2e8f:	b8 01 00 00 00       	mov    $0x1,%eax
    2e94:	eb 05                	jmp    2e9b <bli_is_not_edge_b+0x2e>
    2e96:	b8 00 00 00 00       	mov    $0x0,%eax
    2e9b:	83 e0 01             	and    $0x1,%eax
    2e9e:	5d                   	pop    %rbp
    2e9f:	c3                   	retq   

0000000000002ea0 <bli_is_last_iter_sl>:
    2ea0:	f3 0f 1e fa          	endbr64 
    2ea4:	55                   	push   %rbp
    2ea5:	48 89 e5             	mov    %rsp,%rbp
    2ea8:	48 89 7d f8          	mov    %rdi,-0x8(%rbp)
    2eac:	48 89 75 f0          	mov    %rsi,-0x10(%rbp)
    2eb0:	48 89 55 e8          	mov    %rdx,-0x18(%rbp)
    2eb4:	48 89 4d e0          	mov    %rcx,-0x20(%rbp)
    2eb8:	48 8b 45 f0          	mov    -0x10(%rbp),%rax
    2ebc:	48 83 e8 01          	sub    $0x1,%rax
    2ec0:	48 39 45 f8          	cmp    %rax,-0x8(%rbp)
    2ec4:	0f 94 c0             	sete   %al
    2ec7:	5d                   	pop    %rbp
    2ec8:	c3                   	retq   

0000000000002ec9 <bli_is_last_iter_rr>:
    2ec9:	f3 0f 1e fa          	endbr64 
    2ecd:	55                   	push   %rbp
    2ece:	48 89 e5             	mov    %rsp,%rbp
    2ed1:	48 89 7d f8          	mov    %rdi,-0x8(%rbp)
    2ed5:	48 89 75 f0          	mov    %rsi,-0x10(%rbp)
    2ed9:	48 89 55 e8          	mov    %rdx,-0x18(%rbp)
    2edd:	48 89 4d e0          	mov    %rcx,-0x20(%rbp)
    2ee1:	48 8b 45 f0          	mov    -0x10(%rbp),%rax
    2ee5:	48 8d 48 ff          	lea    -0x1(%rax),%rcx
    2ee9:	48 8b 45 f0          	mov    -0x10(%rbp),%rax
    2eed:	48 2b 45 e8          	sub    -0x18(%rbp),%rax
    2ef1:	48 83 e8 01          	sub    $0x1,%rax
    2ef5:	48 99                	cqto   
    2ef7:	48 f7 7d e0          	idivq  -0x20(%rbp)
    2efb:	48 89 d0             	mov    %rdx,%rax
    2efe:	48 29 c1             	sub    %rax,%rcx
    2f01:	48 89 c8             	mov    %rcx,%rax
    2f04:	48 39 45 f8          	cmp    %rax,-0x8(%rbp)
    2f08:	0f 94 c0             	sete   %al
    2f0b:	5d                   	pop    %rbp
    2f0c:	c3                   	retq   

0000000000002f0d <bli_is_last_iter>:
    2f0d:	f3 0f 1e fa          	endbr64 
    2f11:	55                   	push   %rbp
    2f12:	48 89 e5             	mov    %rsp,%rbp
    2f15:	48 83 ec 20          	sub    $0x20,%rsp
    2f19:	48 89 7d f8          	mov    %rdi,-0x8(%rbp)
    2f1d:	48 89 75 f0          	mov    %rsi,-0x10(%rbp)
    2f21:	48 89 55 e8          	mov    %rdx,-0x18(%rbp)
    2f25:	48 89 4d e0          	mov    %rcx,-0x20(%rbp)
    2f29:	48 8b 4d e0          	mov    -0x20(%rbp),%rcx
    2f2d:	48 8b 55 e8          	mov    -0x18(%rbp),%rdx
    2f31:	48 8b 75 f0          	mov    -0x10(%rbp),%rsi
    2f35:	48 8b 45 f8          	mov    -0x8(%rbp),%rax
    2f39:	48 89 c7             	mov    %rax,%rdi
    2f3c:	e8 5f ff ff ff       	callq  2ea0 <bli_is_last_iter_sl>
    2f41:	c9                   	leaveq 
    2f42:	c3                   	retq   

0000000000002f43 <bli_packbuf_index>:
    2f43:	f3 0f 1e fa          	endbr64 
    2f47:	55                   	push   %rbp
    2f48:	48 89 e5             	mov    %rsp,%rbp
    2f4b:	89 7d fc             	mov    %edi,-0x4(%rbp)
    2f4e:	8b 45 fc             	mov    -0x4(%rbp),%eax
    2f51:	c1 e8 19             	shr    $0x19,%eax
    2f54:	89 c0                	mov    %eax,%eax
    2f56:	83 e0 03             	and    $0x3,%eax
    2f59:	5d                   	pop    %rbp
    2f5a:	c3                   	retq   

0000000000002f5b <bli_is_packed>:
    2f5b:	f3 0f 1e fa          	endbr64 
    2f5f:	55                   	push   %rbp
    2f60:	48 89 e5             	mov    %rsp,%rbp
    2f63:	89 7d fc             	mov    %edi,-0x4(%rbp)
    2f66:	8b 45 fc             	mov    -0x4(%rbp),%eax
    2f69:	25 00 00 40 00       	and    $0x400000,%eax
    2f6e:	85 c0                	test   %eax,%eax
    2f70:	0f 95 c0             	setne  %al
    2f73:	5d                   	pop    %rbp
    2f74:	c3                   	retq   

0000000000002f75 <bli_is_row_packed>:
    2f75:	f3 0f 1e fa          	endbr64 
    2f79:	55                   	push   %rbp
    2f7a:	48 89 e5             	mov    %rsp,%rbp
    2f7d:	89 7d fc             	mov    %edi,-0x4(%rbp)
    2f80:	8b 45 fc             	mov    -0x4(%rbp),%eax
    2f83:	25 00 00 01 00       	and    $0x10000,%eax
    2f88:	85 c0                	test   %eax,%eax
    2f8a:	0f 94 c0             	sete   %al
    2f8d:	5d                   	pop    %rbp
    2f8e:	c3                   	retq   

0000000000002f8f <bli_is_col_packed>:
    2f8f:	f3 0f 1e fa          	endbr64 
    2f93:	55                   	push   %rbp
    2f94:	48 89 e5             	mov    %rsp,%rbp
    2f97:	89 7d fc             	mov    %edi,-0x4(%rbp)
    2f9a:	8b 45 fc             	mov    -0x4(%rbp),%eax
    2f9d:	25 00 00 01 00       	and    $0x10000,%eax
    2fa2:	85 c0                	test   %eax,%eax
    2fa4:	0f 95 c0             	setne  %al
    2fa7:	5d                   	pop    %rbp
    2fa8:	c3                   	retq   

0000000000002fa9 <bli_is_panel_packed>:
    2fa9:	f3 0f 1e fa          	endbr64 
    2fad:	55                   	push   %rbp
    2fae:	48 89 e5             	mov    %rsp,%rbp
    2fb1:	89 7d fc             	mov    %edi,-0x4(%rbp)
    2fb4:	8b 45 fc             	mov    -0x4(%rbp),%eax
    2fb7:	25 00 00 02 00       	and    $0x20000,%eax
    2fbc:	85 c0                	test   %eax,%eax
    2fbe:	0f 95 c0             	setne  %al
    2fc1:	5d                   	pop    %rbp
    2fc2:	c3                   	retq   

0000000000002fc3 <bli_is_4mi_packed>:
    2fc3:	f3 0f 1e fa          	endbr64 
    2fc7:	55                   	push   %rbp
    2fc8:	48 89 e5             	mov    %rsp,%rbp
    2fcb:	89 7d fc             	mov    %edi,-0x4(%rbp)
    2fce:	8b 45 fc             	mov    -0x4(%rbp),%eax
    2fd1:	25 00 00 3c 00       	and    $0x3c0000,%eax
    2fd6:	3d 00 00 04 00       	cmp    $0x40000,%eax
    2fdb:	0f 94 c0             	sete   %al
    2fde:	5d                   	pop    %rbp
    2fdf:	c3                   	retq   

0000000000002fe0 <bli_is_3mi_packed>:
    2fe0:	f3 0f 1e fa          	endbr64 
    2fe4:	55                   	push   %rbp
    2fe5:	48 89 e5             	mov    %rsp,%rbp
    2fe8:	89 7d fc             	mov    %edi,-0x4(%rbp)
    2feb:	8b 45 fc             	mov    -0x4(%rbp),%eax
    2fee:	25 00 00 3c 00       	and    $0x3c0000,%eax
    2ff3:	3d 00 00 08 00       	cmp    $0x80000,%eax
    2ff8:	0f 94 c0             	sete   %al
    2ffb:	5d                   	pop    %rbp
    2ffc:	c3                   	retq   

0000000000002ffd <bli_is_3ms_packed>:
    2ffd:	f3 0f 1e fa          	endbr64 
    3001:	55                   	push   %rbp
    3002:	48 89 e5             	mov    %rsp,%rbp
    3005:	89 7d fc             	mov    %edi,-0x4(%rbp)
    3008:	8b 45 fc             	mov    -0x4(%rbp),%eax
    300b:	25 00 00 3c 00       	and    $0x3c0000,%eax
    3010:	3d 00 00 10 00       	cmp    $0x100000,%eax
    3015:	0f 94 c0             	sete   %al
    3018:	5d                   	pop    %rbp
    3019:	c3                   	retq   

000000000000301a <bli_is_ro_packed>:
    301a:	f3 0f 1e fa          	endbr64 
    301e:	55                   	push   %rbp
    301f:	48 89 e5             	mov    %rsp,%rbp
    3022:	89 7d fc             	mov    %edi,-0x4(%rbp)
    3025:	8b 45 fc             	mov    -0x4(%rbp),%eax
    3028:	25 00 00 3c 00       	and    $0x3c0000,%eax
    302d:	3d 00 00 14 00       	cmp    $0x140000,%eax
    3032:	0f 94 c0             	sete   %al
    3035:	5d                   	pop    %rbp
    3036:	c3                   	retq   

0000000000003037 <bli_is_io_packed>:
    3037:	f3 0f 1e fa          	endbr64 
    303b:	55                   	push   %rbp
    303c:	48 89 e5             	mov    %rsp,%rbp
    303f:	89 7d fc             	mov    %edi,-0x4(%rbp)
    3042:	8b 45 fc             	mov    -0x4(%rbp),%eax
    3045:	25 00 00 3c 00       	and    $0x3c0000,%eax
    304a:	3d 00 00 18 00       	cmp    $0x180000,%eax
    304f:	0f 94 c0             	sete   %al
    3052:	5d                   	pop    %rbp
    3053:	c3                   	retq   

0000000000003054 <bli_is_rpi_packed>:
    3054:	f3 0f 1e fa          	endbr64 
    3058:	55                   	push   %rbp
    3059:	48 89 e5             	mov    %rsp,%rbp
    305c:	89 7d fc             	mov    %edi,-0x4(%rbp)
    305f:	8b 45 fc             	mov    -0x4(%rbp),%eax
    3062:	25 00 00 3c 00       	and    $0x3c0000,%eax
    3067:	3d 00 00 1c 00       	cmp    $0x1c0000,%eax
    306c:	0f 94 c0             	sete   %al
    306f:	5d                   	pop    %rbp
    3070:	c3                   	retq   

0000000000003071 <bli_is_rih_packed>:
    3071:	f3 0f 1e fa          	endbr64 
    3075:	55                   	push   %rbp
    3076:	48 89 e5             	mov    %rsp,%rbp
    3079:	48 83 ec 08          	sub    $0x8,%rsp
    307d:	89 7d fc             	mov    %edi,-0x4(%rbp)
    3080:	8b 45 fc             	mov    -0x4(%rbp),%eax
    3083:	89 c7                	mov    %eax,%edi
    3085:	e8 90 ff ff ff       	callq  301a <bli_is_ro_packed>
    308a:	84 c0                	test   %al,%al
    308c:	75 1c                	jne    30aa <bli_is_rih_packed+0x39>
    308e:	8b 45 fc             	mov    -0x4(%rbp),%eax
    3091:	89 c7                	mov    %eax,%edi
    3093:	e8 9f ff ff ff       	callq  3037 <bli_is_io_packed>
    3098:	84 c0                	test   %al,%al
    309a:	75 0e                	jne    30aa <bli_is_rih_packed+0x39>
    309c:	8b 45 fc             	mov    -0x4(%rbp),%eax
    309f:	89 c7                	mov    %eax,%edi
    30a1:	e8 ae ff ff ff       	callq  3054 <bli_is_rpi_packed>
    30a6:	84 c0                	test   %al,%al
    30a8:	74 07                	je     30b1 <bli_is_rih_packed+0x40>
    30aa:	b8 01 00 00 00       	mov    $0x1,%eax
    30af:	eb 05                	jmp    30b6 <bli_is_rih_packed+0x45>
    30b1:	b8 00 00 00 00       	mov    $0x0,%eax
    30b6:	83 e0 01             	and    $0x1,%eax
    30b9:	c9                   	leaveq 
    30ba:	c3                   	retq   

00000000000030bb <bli_is_1r_packed>:
    30bb:	f3 0f 1e fa          	endbr64 
    30bf:	55                   	push   %rbp
    30c0:	48 89 e5             	mov    %rsp,%rbp
    30c3:	89 7d fc             	mov    %edi,-0x4(%rbp)
    30c6:	8b 45 fc             	mov    -0x4(%rbp),%eax
    30c9:	25 00 00 3c 00       	and    $0x3c0000,%eax
    30ce:	3d 00 00 24 00       	cmp    $0x240000,%eax
    30d3:	0f 94 c0             	sete   %al
    30d6:	5d                   	pop    %rbp
    30d7:	c3                   	retq   

00000000000030d8 <bli_is_1e_packed>:
    30d8:	f3 0f 1e fa          	endbr64 
    30dc:	55                   	push   %rbp
    30dd:	48 89 e5             	mov    %rsp,%rbp
    30e0:	89 7d fc             	mov    %edi,-0x4(%rbp)
    30e3:	8b 45 fc             	mov    -0x4(%rbp),%eax
    30e6:	25 00 00 3c 00       	and    $0x3c0000,%eax
    30eb:	3d 00 00 20 00       	cmp    $0x200000,%eax
    30f0:	0f 94 c0             	sete   %al
    30f3:	5d                   	pop    %rbp
    30f4:	c3                   	retq   

00000000000030f5 <bli_is_1m_packed>:
    30f5:	f3 0f 1e fa          	endbr64 
    30f9:	55                   	push   %rbp
    30fa:	48 89 e5             	mov    %rsp,%rbp
    30fd:	48 83 ec 08          	sub    $0x8,%rsp
    3101:	89 7d fc             	mov    %edi,-0x4(%rbp)
    3104:	8b 45 fc             	mov    -0x4(%rbp),%eax
    3107:	89 c7                	mov    %eax,%edi
    3109:	e8 ad ff ff ff       	callq  30bb <bli_is_1r_packed>
    310e:	84 c0                	test   %al,%al
    3110:	75 0e                	jne    3120 <bli_is_1m_packed+0x2b>
    3112:	8b 45 fc             	mov    -0x4(%rbp),%eax
    3115:	89 c7                	mov    %eax,%edi
    3117:	e8 bc ff ff ff       	callq  30d8 <bli_is_1e_packed>
    311c:	84 c0                	test   %al,%al
    311e:	74 07                	je     3127 <bli_is_1m_packed+0x32>
    3120:	b8 01 00 00 00       	mov    $0x1,%eax
    3125:	eb 05                	jmp    312c <bli_is_1m_packed+0x37>
    3127:	b8 00 00 00 00       	mov    $0x0,%eax
    312c:	83 e0 01             	and    $0x1,%eax
    312f:	c9                   	leaveq 
    3130:	c3                   	retq   

0000000000003131 <bli_is_nat_packed>:
    3131:	f3 0f 1e fa          	endbr64 
    3135:	55                   	push   %rbp
    3136:	48 89 e5             	mov    %rsp,%rbp
    3139:	89 7d fc             	mov    %edi,-0x4(%rbp)
    313c:	8b 45 fc             	mov    -0x4(%rbp),%eax
    313f:	25 00 00 3c 00       	and    $0x3c0000,%eax
    3144:	85 c0                	test   %eax,%eax
    3146:	0f 94 c0             	sete   %al
    3149:	5d                   	pop    %rbp
    314a:	c3                   	retq   

000000000000314b <bli_is_ind_packed>:
    314b:	f3 0f 1e fa          	endbr64 
    314f:	55                   	push   %rbp
    3150:	48 89 e5             	mov    %rsp,%rbp
    3153:	89 7d fc             	mov    %edi,-0x4(%rbp)
    3156:	8b 45 fc             	mov    -0x4(%rbp),%eax
    3159:	25 00 00 3c 00       	and    $0x3c0000,%eax
    315e:	85 c0                	test   %eax,%eax
    3160:	0f 95 c0             	setne  %al
    3163:	5d                   	pop    %rbp
    3164:	c3                   	retq   

0000000000003165 <bli_pack_schema_index>:
    3165:	f3 0f 1e fa          	endbr64 
    3169:	55                   	push   %rbp
    316a:	48 89 e5             	mov    %rsp,%rbp
    316d:	89 7d fc             	mov    %edi,-0x4(%rbp)
    3170:	8b 45 fc             	mov    -0x4(%rbp),%eax
    3173:	c1 e8 12             	shr    $0x12,%eax
    3176:	89 c0                	mov    %eax,%eax
    3178:	83 e0 0f             	and    $0xf,%eax
    317b:	5d                   	pop    %rbp
    317c:	c3                   	retq   

000000000000317d <bli_ptr_inc_by_frac>:
    317d:	f3 0f 1e fa          	endbr64 
    3181:	55                   	push   %rbp
    3182:	48 89 e5             	mov    %rsp,%rbp
    3185:	48 89 7d f8          	mov    %rdi,-0x8(%rbp)
    3189:	48 89 75 f0          	mov    %rsi,-0x10(%rbp)
    318d:	48 89 55 e8          	mov    %rdx,-0x18(%rbp)
    3191:	48 89 4d e0          	mov    %rcx,-0x20(%rbp)
    3195:	48 8b 45 f0          	mov    -0x10(%rbp),%rax
    3199:	48 0f af 45 e8       	imul   -0x18(%rbp),%rax
    319e:	48 99                	cqto   
    31a0:	48 f7 7d e0          	idivq  -0x20(%rbp)
    31a4:	48 89 c2             	mov    %rax,%rdx
    31a7:	48 8b 45 f8          	mov    -0x8(%rbp),%rax
    31ab:	48 01 d0             	add    %rdx,%rax
    31ae:	5d                   	pop    %rbp
    31af:	c3                   	retq   

00000000000031b0 <bli_set_dims_incs_uplo_1m>:
    31b0:	f3 0f 1e fa          	endbr64 
    31b4:	55                   	push   %rbp
    31b5:	48 89 e5             	mov    %rsp,%rbp
    31b8:	48 83 c4 80          	add    $0xffffffffffffff80,%rsp
    31bc:	48 89 7d d8          	mov    %rdi,-0x28(%rbp)
    31c0:	89 75 d4             	mov    %esi,-0x2c(%rbp)
    31c3:	89 55 d0             	mov    %edx,-0x30(%rbp)
    31c6:	48 89 4d c8          	mov    %rcx,-0x38(%rbp)
    31ca:	4c 89 45 c0          	mov    %r8,-0x40(%rbp)
    31ce:	4c 89 4d b8          	mov    %r9,-0x48(%rbp)
    31d2:	48 8b 45 18          	mov    0x18(%rbp),%rax
    31d6:	48 89 45 b0          	mov    %rax,-0x50(%rbp)
    31da:	48 8b 45 20          	mov    0x20(%rbp),%rax
    31de:	48 89 45 a8          	mov    %rax,-0x58(%rbp)
    31e2:	48 8b 45 28          	mov    0x28(%rbp),%rax
    31e6:	48 89 45 a0          	mov    %rax,-0x60(%rbp)
    31ea:	48 8b 45 30          	mov    0x30(%rbp),%rax
    31ee:	48 89 45 98          	mov    %rax,-0x68(%rbp)
    31f2:	48 8b 45 38          	mov    0x38(%rbp),%rax
    31f6:	48 89 45 90          	mov    %rax,-0x70(%rbp)
    31fa:	48 8b 45 40          	mov    0x40(%rbp),%rax
    31fe:	48 89 45 88          	mov    %rax,-0x78(%rbp)
    3202:	48 8b 45 48          	mov    0x48(%rbp),%rax
    3206:	48 89 45 80          	mov    %rax,-0x80(%rbp)
    320a:	64 48 8b 04 25 28 00 	mov    %fs:0x28,%rax
    3211:	00 00 
    3213:	48 89 45 f8          	mov    %rax,-0x8(%rbp)
    3217:	31 c0                	xor    %eax,%eax
    3219:	48 8b 45 88          	mov    -0x78(%rbp),%rax
    321d:	48 c7 00 00 00 00 00 	movq   $0x0,(%rax)
    3224:	48 8b 45 80          	mov    -0x80(%rbp),%rax
    3228:	48 c7 00 00 00 00 00 	movq   $0x0,(%rax)
    322f:	48 8b 75 c0          	mov    -0x40(%rbp),%rsi
    3233:	48 8b 4d c8          	mov    -0x38(%rbp),%rcx
    3237:	8b 55 d0             	mov    -0x30(%rbp),%edx
    323a:	48 8b 45 d8          	mov    -0x28(%rbp),%rax
    323e:	49 89 f0             	mov    %rsi,%r8
    3241:	be 00 00 00 00       	mov    $0x0,%esi
    3246:	48 89 c7             	mov    %rax,%rdi
    3249:	e8 8f f4 ff ff       	callq  26dd <bli_is_unstored_subpart>
    324e:	84 c0                	test   %al,%al
    3250:	74 0f                	je     3261 <bli_set_dims_incs_uplo_1m+0xb1>
    3252:	48 8b 45 b0          	mov    -0x50(%rbp),%rax
    3256:	c7 00 00 00 00 00    	movl   $0x0,(%rax)
    325c:	e9 52 02 00 00       	jmpq   34b3 <bli_set_dims_incs_uplo_1m+0x303>
    3261:	48 8b 45 d8          	mov    -0x28(%rbp),%rax
    3265:	48 89 45 e0          	mov    %rax,-0x20(%rbp)
    3269:	8b 45 d4             	mov    -0x2c(%rbp),%eax
    326c:	89 c7                	mov    %eax,%edi
    326e:	e8 38 ec ff ff       	callq  1eab <bli_is_unit_diag>
    3273:	84 c0                	test   %al,%al
    3275:	74 11                	je     3288 <bli_set_dims_incs_uplo_1m+0xd8>
    3277:	48 8d 55 e0          	lea    -0x20(%rbp),%rdx
    327b:	8b 45 d0             	mov    -0x30(%rbp),%eax
    327e:	48 89 d6             	mov    %rdx,%rsi
    3281:	89 c7                	mov    %eax,%edi
    3283:	e8 5e f2 ff ff       	callq  24e6 <bli_shift_diag_offset_to_shrink_uplo>
    3288:	48 8b 45 e0          	mov    -0x20(%rbp),%rax
    328c:	48 8b 75 c0          	mov    -0x40(%rbp),%rsi
    3290:	48 8b 4d c8          	mov    -0x38(%rbp),%rcx
    3294:	8b 55 d0             	mov    -0x30(%rbp),%edx
    3297:	49 89 f0             	mov    %rsi,%r8
    329a:	be 00 00 00 00       	mov    $0x0,%esi
    329f:	48 89 c7             	mov    %rax,%rdi
    32a2:	e8 b5 f3 ff ff       	callq  265c <bli_is_stored_subpart>
    32a7:	84 c0                	test   %al,%al
    32a9:	74 07                	je     32b2 <bli_set_dims_incs_uplo_1m+0x102>
    32ab:	c7 45 d0 e0 00 00 00 	movl   $0xe0,-0x30(%rbp)
    32b2:	48 8b 45 c0          	mov    -0x40(%rbp),%rax
    32b6:	48 89 45 f0          	mov    %rax,-0x10(%rbp)
    32ba:	48 8b 45 a8          	mov    -0x58(%rbp),%rax
    32be:	48 8b 55 c8          	mov    -0x38(%rbp),%rdx
    32c2:	48 89 10             	mov    %rdx,(%rax)
    32c5:	48 8b 45 98          	mov    -0x68(%rbp),%rax
    32c9:	48 8b 55 b8          	mov    -0x48(%rbp),%rdx
    32cd:	48 89 10             	mov    %rdx,(%rax)
    32d0:	48 8b 45 90          	mov    -0x70(%rbp),%rax
    32d4:	48 8b 55 10          	mov    0x10(%rbp),%rdx
    32d8:	48 89 10             	mov    %rdx,(%rax)
    32db:	48 8b 45 b0          	mov    -0x50(%rbp),%rax
    32df:	8b 55 d0             	mov    -0x30(%rbp),%edx
    32e2:	89 10                	mov    %edx,(%rax)
    32e4:	48 8b 45 e0          	mov    -0x20(%rbp),%rax
    32e8:	48 89 45 e8          	mov    %rax,-0x18(%rbp)
    32ec:	48 8b 45 90          	mov    -0x70(%rbp),%rax
    32f0:	48 8b 08             	mov    (%rax),%rcx
    32f3:	48 8b 45 98          	mov    -0x68(%rbp),%rax
    32f7:	48 8b 10             	mov    (%rax),%rdx
    32fa:	48 8b 75 f0          	mov    -0x10(%rbp),%rsi
    32fe:	48 8b 45 a8          	mov    -0x58(%rbp),%rax
    3302:	48 8b 00             	mov    (%rax),%rax
    3305:	48 89 c7             	mov    %rax,%rdi
    3308:	e8 df ef ff ff       	callq  22ec <bli_is_row_tilted>
    330d:	84 c0                	test   %al,%al
    330f:	74 3e                	je     334f <bli_set_dims_incs_uplo_1m+0x19f>
    3311:	48 8b 55 a8          	mov    -0x58(%rbp),%rdx
    3315:	48 8d 45 f0          	lea    -0x10(%rbp),%rax
    3319:	48 89 d6             	mov    %rdx,%rsi
    331c:	48 89 c7             	mov    %rax,%rdi
    331f:	e8 b4 e4 ff ff       	callq  17d8 <bli_swap_dims>
    3324:	48 8b 55 90          	mov    -0x70(%rbp),%rdx
    3328:	48 8b 45 98          	mov    -0x68(%rbp),%rax
    332c:	48 89 d6             	mov    %rdx,%rsi
    332f:	48 89 c7             	mov    %rax,%rdi
    3332:	e8 d8 e4 ff ff       	callq  180f <bli_swap_incs>
    3337:	48 8b 45 b0          	mov    -0x50(%rbp),%rax
    333b:	48 89 c7             	mov    %rax,%rdi
    333e:	e8 22 ea ff ff       	callq  1d65 <bli_toggle_uplo>
    3343:	48 8d 45 e8          	lea    -0x18(%rbp),%rax
    3347:	48 89 c7             	mov    %rax,%rdi
    334a:	e8 1c f1 ff ff       	callq  246b <bli_negate_diag_offset>
    334f:	48 8b 45 b0          	mov    -0x50(%rbp),%rax
    3353:	8b 00                	mov    (%rax),%eax
    3355:	89 c7                	mov    %eax,%edi
    3357:	e8 b5 e9 ff ff       	callq  1d11 <bli_is_dense>
    335c:	84 c0                	test   %al,%al
    335e:	74 10                	je     3370 <bli_set_dims_incs_uplo_1m+0x1c0>
    3360:	48 8b 55 f0          	mov    -0x10(%rbp),%rdx
    3364:	48 8b 45 a0          	mov    -0x60(%rbp),%rax
    3368:	48 89 10             	mov    %rdx,(%rax)
    336b:	e9 43 01 00 00       	jmpq   34b3 <bli_set_dims_incs_uplo_1m+0x303>
    3370:	48 8b 45 b0          	mov    -0x50(%rbp),%rax
    3374:	8b 00                	mov    (%rax),%eax
    3376:	89 c7                	mov    %eax,%edi
    3378:	e8 44 e9 ff ff       	callq  1cc1 <bli_is_upper>
    337d:	84 c0                	test   %al,%al
    337f:	0f 84 8e 00 00 00    	je     3413 <bli_set_dims_incs_uplo_1m+0x263>
    3385:	48 8b 45 e8          	mov    -0x18(%rbp),%rax
    3389:	48 85 c0             	test   %rax,%rax
    338c:	79 58                	jns    33e6 <bli_set_dims_incs_uplo_1m+0x236>
    338e:	48 8b 45 88          	mov    -0x78(%rbp),%rax
    3392:	48 c7 00 00 00 00 00 	movq   $0x0,(%rax)
    3399:	48 8b 45 e8          	mov    -0x18(%rbp),%rax
    339d:	48 f7 d8             	neg    %rax
    33a0:	48 89 c2             	mov    %rax,%rdx
    33a3:	48 8b 45 80          	mov    -0x80(%rbp),%rax
    33a7:	48 89 10             	mov    %rdx,(%rax)
    33aa:	48 8b 45 80          	mov    -0x80(%rbp),%rax
    33ae:	48 8b 10             	mov    (%rax),%rdx
    33b1:	48 8b 45 c8          	mov    -0x38(%rbp),%rax
    33b5:	48 39 45 c0          	cmp    %rax,-0x40(%rbp)
    33b9:	48 0f 4e 45 c0       	cmovle -0x40(%rbp),%rax
    33be:	48 01 c2             	add    %rax,%rdx
    33c1:	48 8b 45 a8          	mov    -0x58(%rbp),%rax
    33c5:	48 8b 00             	mov    (%rax),%rax
    33c8:	48 39 c2             	cmp    %rax,%rdx
    33cb:	48 0f 4f d0          	cmovg  %rax,%rdx
    33cf:	48 8b 45 a8          	mov    -0x58(%rbp),%rax
    33d3:	48 89 10             	mov    %rdx,(%rax)
    33d6:	48 8b 55 f0          	mov    -0x10(%rbp),%rdx
    33da:	48 8b 45 a0          	mov    -0x60(%rbp),%rax
    33de:	48 89 10             	mov    %rdx,(%rax)
    33e1:	e9 cd 00 00 00       	jmpq   34b3 <bli_set_dims_incs_uplo_1m+0x303>
    33e6:	48 8b 55 e8          	mov    -0x18(%rbp),%rdx
    33ea:	48 8b 45 88          	mov    -0x78(%rbp),%rax
    33ee:	48 89 10             	mov    %rdx,(%rax)
    33f1:	48 8b 45 80          	mov    -0x80(%rbp),%rax
    33f5:	48 c7 00 00 00 00 00 	movq   $0x0,(%rax)
    33fc:	48 8b 55 f0          	mov    -0x10(%rbp),%rdx
    3400:	48 8b 45 e8          	mov    -0x18(%rbp),%rax
    3404:	48 29 c2             	sub    %rax,%rdx
    3407:	48 8b 45 a0          	mov    -0x60(%rbp),%rax
    340b:	48 89 10             	mov    %rdx,(%rax)
    340e:	e9 a0 00 00 00       	jmpq   34b3 <bli_set_dims_incs_uplo_1m+0x303>
    3413:	48 8b 45 e8          	mov    -0x18(%rbp),%rax
    3417:	48 85 c0             	test   %rax,%rax
    341a:	79 58                	jns    3474 <bli_set_dims_incs_uplo_1m+0x2c4>
    341c:	48 8b 45 e8          	mov    -0x18(%rbp),%rax
    3420:	48 f7 d8             	neg    %rax
    3423:	48 89 c2             	mov    %rax,%rdx
    3426:	48 8b 45 88          	mov    -0x78(%rbp),%rax
    342a:	48 89 10             	mov    %rdx,(%rax)
    342d:	48 8b 45 80          	mov    -0x80(%rbp),%rax
    3431:	48 c7 00 00 00 00 00 	movq   $0x0,(%rax)
    3438:	48 8b 45 a8          	mov    -0x58(%rbp),%rax
    343c:	48 8b 10             	mov    (%rax),%rdx
    343f:	48 8b 45 e8          	mov    -0x18(%rbp),%rax
    3443:	48 01 c2             	add    %rax,%rdx
    3446:	48 8b 45 a8          	mov    -0x58(%rbp),%rax
    344a:	48 89 10             	mov    %rdx,(%rax)
    344d:	48 8b 45 c8          	mov    -0x38(%rbp),%rax
    3451:	48 39 45 c0          	cmp    %rax,-0x40(%rbp)
    3455:	48 0f 4e 45 c0       	cmovle -0x40(%rbp),%rax
    345a:	48 89 c2             	mov    %rax,%rdx
    345d:	48 8b 45 a8          	mov    -0x58(%rbp),%rax
    3461:	48 8b 00             	mov    (%rax),%rax
    3464:	48 39 c2             	cmp    %rax,%rdx
    3467:	48 0f 4f d0          	cmovg  %rax,%rdx
    346b:	48 8b 45 a0          	mov    -0x60(%rbp),%rax
    346f:	48 89 10             	mov    %rdx,(%rax)
    3472:	eb 3f                	jmp    34b3 <bli_set_dims_incs_uplo_1m+0x303>
    3474:	48 8b 45 88          	mov    -0x78(%rbp),%rax
    3478:	48 c7 00 00 00 00 00 	movq   $0x0,(%rax)
    347f:	48 8b 55 e8          	mov    -0x18(%rbp),%rdx
    3483:	48 8b 45 80          	mov    -0x80(%rbp),%rax
    3487:	48 89 10             	mov    %rdx,(%rax)
    348a:	48 8b 45 80          	mov    -0x80(%rbp),%rax
    348e:	48 8b 10             	mov    (%rax),%rdx
    3491:	48 8b 45 c8          	mov    -0x38(%rbp),%rax
    3495:	48 39 45 c0          	cmp    %rax,-0x40(%rbp)
    3499:	48 0f 4e 45 c0       	cmovle -0x40(%rbp),%rax
    349e:	48 01 c2             	add    %rax,%rdx
    34a1:	48 8b 45 f0          	mov    -0x10(%rbp),%rax
    34a5:	48 39 c2             	cmp    %rax,%rdx
    34a8:	48 0f 4f d0          	cmovg  %rax,%rdx
    34ac:	48 8b 45 a0          	mov    -0x60(%rbp),%rax
    34b0:	48 89 10             	mov    %rdx,(%rax)
    34b3:	90                   	nop
    34b4:	48 8b 45 f8          	mov    -0x8(%rbp),%rax
    34b8:	64 48 33 04 25 28 00 	xor    %fs:0x28,%rax
    34bf:	00 00 
    34c1:	74 05                	je     34c8 <bli_set_dims_incs_uplo_1m+0x318>
    34c3:	e8 88 dd ff ff       	callq  1250 <__stack_chk_fail@plt>
    34c8:	c9                   	leaveq 
    34c9:	c3                   	retq   

00000000000034ca <bli_set_dims_incs_uplo_1m_noswap>:
    34ca:	f3 0f 1e fa          	endbr64 
    34ce:	55                   	push   %rbp
    34cf:	48 89 e5             	mov    %rsp,%rbp
    34d2:	48 83 c4 80          	add    $0xffffffffffffff80,%rsp
    34d6:	48 89 7d d8          	mov    %rdi,-0x28(%rbp)
    34da:	89 75 d4             	mov    %esi,-0x2c(%rbp)
    34dd:	89 55 d0             	mov    %edx,-0x30(%rbp)
    34e0:	48 89 4d c8          	mov    %rcx,-0x38(%rbp)
    34e4:	4c 89 45 c0          	mov    %r8,-0x40(%rbp)
    34e8:	4c 89 4d b8          	mov    %r9,-0x48(%rbp)
    34ec:	48 8b 45 18          	mov    0x18(%rbp),%rax
    34f0:	48 89 45 b0          	mov    %rax,-0x50(%rbp)
    34f4:	48 8b 45 20          	mov    0x20(%rbp),%rax
    34f8:	48 89 45 a8          	mov    %rax,-0x58(%rbp)
    34fc:	48 8b 45 28          	mov    0x28(%rbp),%rax
    3500:	48 89 45 a0          	mov    %rax,-0x60(%rbp)
    3504:	48 8b 45 30          	mov    0x30(%rbp),%rax
    3508:	48 89 45 98          	mov    %rax,-0x68(%rbp)
    350c:	48 8b 45 38          	mov    0x38(%rbp),%rax
    3510:	48 89 45 90          	mov    %rax,-0x70(%rbp)
    3514:	48 8b 45 40          	mov    0x40(%rbp),%rax
    3518:	48 89 45 88          	mov    %rax,-0x78(%rbp)
    351c:	48 8b 45 48          	mov    0x48(%rbp),%rax
    3520:	48 89 45 80          	mov    %rax,-0x80(%rbp)
    3524:	64 48 8b 04 25 28 00 	mov    %fs:0x28,%rax
    352b:	00 00 
    352d:	48 89 45 f8          	mov    %rax,-0x8(%rbp)
    3531:	31 c0                	xor    %eax,%eax
    3533:	48 8b 45 88          	mov    -0x78(%rbp),%rax
    3537:	48 c7 00 00 00 00 00 	movq   $0x0,(%rax)
    353e:	48 8b 45 80          	mov    -0x80(%rbp),%rax
    3542:	48 c7 00 00 00 00 00 	movq   $0x0,(%rax)
    3549:	48 8b 75 c0          	mov    -0x40(%rbp),%rsi
    354d:	48 8b 4d c8          	mov    -0x38(%rbp),%rcx
    3551:	8b 55 d0             	mov    -0x30(%rbp),%edx
    3554:	48 8b 45 d8          	mov    -0x28(%rbp),%rax
    3558:	49 89 f0             	mov    %rsi,%r8
    355b:	be 00 00 00 00       	mov    $0x0,%esi
    3560:	48 89 c7             	mov    %rax,%rdi
    3563:	e8 75 f1 ff ff       	callq  26dd <bli_is_unstored_subpart>
    3568:	84 c0                	test   %al,%al
    356a:	74 0f                	je     357b <bli_set_dims_incs_uplo_1m_noswap+0xb1>
    356c:	48 8b 45 b0          	mov    -0x50(%rbp),%rax
    3570:	c7 00 00 00 00 00    	movl   $0x0,(%rax)
    3576:	e9 ec 01 00 00       	jmpq   3767 <bli_set_dims_incs_uplo_1m_noswap+0x29d>
    357b:	48 8b 45 d8          	mov    -0x28(%rbp),%rax
    357f:	48 89 45 e0          	mov    %rax,-0x20(%rbp)
    3583:	8b 45 d4             	mov    -0x2c(%rbp),%eax
    3586:	89 c7                	mov    %eax,%edi
    3588:	e8 1e e9 ff ff       	callq  1eab <bli_is_unit_diag>
    358d:	84 c0                	test   %al,%al
    358f:	74 11                	je     35a2 <bli_set_dims_incs_uplo_1m_noswap+0xd8>
    3591:	48 8d 55 e0          	lea    -0x20(%rbp),%rdx
    3595:	8b 45 d0             	mov    -0x30(%rbp),%eax
    3598:	48 89 d6             	mov    %rdx,%rsi
    359b:	89 c7                	mov    %eax,%edi
    359d:	e8 44 ef ff ff       	callq  24e6 <bli_shift_diag_offset_to_shrink_uplo>
    35a2:	48 8b 45 e0          	mov    -0x20(%rbp),%rax
    35a6:	48 8b 75 c0          	mov    -0x40(%rbp),%rsi
    35aa:	48 8b 4d c8          	mov    -0x38(%rbp),%rcx
    35ae:	8b 55 d0             	mov    -0x30(%rbp),%edx
    35b1:	49 89 f0             	mov    %rsi,%r8
    35b4:	be 00 00 00 00       	mov    $0x0,%esi
    35b9:	48 89 c7             	mov    %rax,%rdi
    35bc:	e8 9b f0 ff ff       	callq  265c <bli_is_stored_subpart>
    35c1:	84 c0                	test   %al,%al
    35c3:	74 07                	je     35cc <bli_set_dims_incs_uplo_1m_noswap+0x102>
    35c5:	c7 45 d0 e0 00 00 00 	movl   $0xe0,-0x30(%rbp)
    35cc:	48 8b 45 c0          	mov    -0x40(%rbp),%rax
    35d0:	48 89 45 e8          	mov    %rax,-0x18(%rbp)
    35d4:	48 8b 45 a8          	mov    -0x58(%rbp),%rax
    35d8:	48 8b 55 c8          	mov    -0x38(%rbp),%rdx
    35dc:	48 89 10             	mov    %rdx,(%rax)
    35df:	48 8b 45 98          	mov    -0x68(%rbp),%rax
    35e3:	48 8b 55 b8          	mov    -0x48(%rbp),%rdx
    35e7:	48 89 10             	mov    %rdx,(%rax)
    35ea:	48 8b 45 90          	mov    -0x70(%rbp),%rax
    35ee:	48 8b 55 10          	mov    0x10(%rbp),%rdx
    35f2:	48 89 10             	mov    %rdx,(%rax)
    35f5:	48 8b 45 b0          	mov    -0x50(%rbp),%rax
    35f9:	8b 55 d0             	mov    -0x30(%rbp),%edx
    35fc:	89 10                	mov    %edx,(%rax)
    35fe:	48 8b 45 e0          	mov    -0x20(%rbp),%rax
    3602:	48 89 45 f0          	mov    %rax,-0x10(%rbp)
    3606:	48 8b 45 b0          	mov    -0x50(%rbp),%rax
    360a:	8b 00                	mov    (%rax),%eax
    360c:	89 c7                	mov    %eax,%edi
    360e:	e8 fe e6 ff ff       	callq  1d11 <bli_is_dense>
    3613:	84 c0                	test   %al,%al
    3615:	74 10                	je     3627 <bli_set_dims_incs_uplo_1m_noswap+0x15d>
    3617:	48 8b 45 a0          	mov    -0x60(%rbp),%rax
    361b:	48 8b 55 e8          	mov    -0x18(%rbp),%rdx
    361f:	48 89 10             	mov    %rdx,(%rax)
    3622:	e9 40 01 00 00       	jmpq   3767 <bli_set_dims_incs_uplo_1m_noswap+0x29d>
    3627:	48 8b 45 b0          	mov    -0x50(%rbp),%rax
    362b:	8b 00                	mov    (%rax),%eax
    362d:	89 c7                	mov    %eax,%edi
    362f:	e8 8d e6 ff ff       	callq  1cc1 <bli_is_upper>
    3634:	84 c0                	test   %al,%al
    3636:	0f 84 8c 00 00 00    	je     36c8 <bli_set_dims_incs_uplo_1m_noswap+0x1fe>
    363c:	48 83 7d f0 00       	cmpq   $0x0,-0x10(%rbp)
    3641:	79 58                	jns    369b <bli_set_dims_incs_uplo_1m_noswap+0x1d1>
    3643:	48 8b 45 88          	mov    -0x78(%rbp),%rax
    3647:	48 c7 00 00 00 00 00 	movq   $0x0,(%rax)
    364e:	48 8b 45 f0          	mov    -0x10(%rbp),%rax
    3652:	48 f7 d8             	neg    %rax
    3655:	48 89 c2             	mov    %rax,%rdx
    3658:	48 8b 45 80          	mov    -0x80(%rbp),%rax
    365c:	48 89 10             	mov    %rdx,(%rax)
    365f:	48 8b 45 80          	mov    -0x80(%rbp),%rax
    3663:	48 8b 10             	mov    (%rax),%rdx
    3666:	48 8b 45 c8          	mov    -0x38(%rbp),%rax
    366a:	48 39 45 c0          	cmp    %rax,-0x40(%rbp)
    366e:	48 0f 4e 45 c0       	cmovle -0x40(%rbp),%rax
    3673:	48 01 c2             	add    %rax,%rdx
    3676:	48 8b 45 a8          	mov    -0x58(%rbp),%rax
    367a:	48 8b 00             	mov    (%rax),%rax
    367d:	48 39 c2             	cmp    %rax,%rdx
    3680:	48 0f 4f d0          	cmovg  %rax,%rdx
    3684:	48 8b 45 a8          	mov    -0x58(%rbp),%rax
    3688:	48 89 10             	mov    %rdx,(%rax)
    368b:	48 8b 45 a0          	mov    -0x60(%rbp),%rax
    368f:	48 8b 55 e8          	mov    -0x18(%rbp),%rdx
    3693:	48 89 10             	mov    %rdx,(%rax)
    3696:	e9 cc 00 00 00       	jmpq   3767 <bli_set_dims_incs_uplo_1m_noswap+0x29d>
    369b:	48 8b 45 88          	mov    -0x78(%rbp),%rax
    369f:	48 8b 55 f0          	mov    -0x10(%rbp),%rdx
    36a3:	48 89 10             	mov    %rdx,(%rax)
    36a6:	48 8b 45 80          	mov    -0x80(%rbp),%rax
    36aa:	48 c7 00 00 00 00 00 	movq   $0x0,(%rax)
    36b1:	48 8b 45 e8          	mov    -0x18(%rbp),%rax
    36b5:	48 2b 45 f0          	sub    -0x10(%rbp),%rax
    36b9:	48 89 c2             	mov    %rax,%rdx
    36bc:	48 8b 45 a0          	mov    -0x60(%rbp),%rax
    36c0:	48 89 10             	mov    %rdx,(%rax)
    36c3:	e9 9f 00 00 00       	jmpq   3767 <bli_set_dims_incs_uplo_1m_noswap+0x29d>
    36c8:	48 83 7d f0 00       	cmpq   $0x0,-0x10(%rbp)
    36cd:	79 58                	jns    3727 <bli_set_dims_incs_uplo_1m_noswap+0x25d>
    36cf:	48 8b 45 f0          	mov    -0x10(%rbp),%rax
    36d3:	48 f7 d8             	neg    %rax
    36d6:	48 89 c2             	mov    %rax,%rdx
    36d9:	48 8b 45 88          	mov    -0x78(%rbp),%rax
    36dd:	48 89 10             	mov    %rdx,(%rax)
    36e0:	48 8b 45 80          	mov    -0x80(%rbp),%rax
    36e4:	48 c7 00 00 00 00 00 	movq   $0x0,(%rax)
    36eb:	48 8b 45 a8          	mov    -0x58(%rbp),%rax
    36ef:	48 8b 10             	mov    (%rax),%rdx
    36f2:	48 8b 45 f0          	mov    -0x10(%rbp),%rax
    36f6:	48 01 c2             	add    %rax,%rdx
    36f9:	48 8b 45 a8          	mov    -0x58(%rbp),%rax
    36fd:	48 89 10             	mov    %rdx,(%rax)
    3700:	48 8b 45 c8          	mov    -0x38(%rbp),%rax
    3704:	48 39 45 c0          	cmp    %rax,-0x40(%rbp)
    3708:	48 0f 4e 45 c0       	cmovle -0x40(%rbp),%rax
    370d:	48 89 c2             	mov    %rax,%rdx
    3710:	48 8b 45 a8          	mov    -0x58(%rbp),%rax
    3714:	48 8b 00             	mov    (%rax),%rax
    3717:	48 39 c2             	cmp    %rax,%rdx
    371a:	48 0f 4f d0          	cmovg  %rax,%rdx
    371e:	48 8b 45 a0          	mov    -0x60(%rbp),%rax
    3722:	48 89 10             	mov    %rdx,(%rax)
    3725:	eb 40                	jmp    3767 <bli_set_dims_incs_uplo_1m_noswap+0x29d>
    3727:	48 8b 45 88          	mov    -0x78(%rbp),%rax
    372b:	48 c7 00 00 00 00 00 	movq   $0x0,(%rax)
    3732:	48 8b 45 80          	mov    -0x80(%rbp),%rax
    3736:	48 8b 55 f0          	mov    -0x10(%rbp),%rdx
    373a:	48 89 10             	mov    %rdx,(%rax)
    373d:	48 8b 45 80          	mov    -0x80(%rbp),%rax
    3741:	48 8b 10             	mov    (%rax),%rdx
    3744:	48 8b 45 c8          	mov    -0x38(%rbp),%rax
    3748:	48 39 45 c0          	cmp    %rax,-0x40(%rbp)
    374c:	48 0f 4e 45 c0       	cmovle -0x40(%rbp),%rax
    3751:	48 01 d0             	add    %rdx,%rax
    3754:	48 39 45 e8          	cmp    %rax,-0x18(%rbp)
    3758:	48 0f 4e 45 e8       	cmovle -0x18(%rbp),%rax
    375d:	48 89 c2             	mov    %rax,%rdx
    3760:	48 8b 45 a0          	mov    -0x60(%rbp),%rax
    3764:	48 89 10             	mov    %rdx,(%rax)
    3767:	90                   	nop
    3768:	48 8b 45 f8          	mov    -0x8(%rbp),%rax
    376c:	64 48 33 04 25 28 00 	xor    %fs:0x28,%rax
    3773:	00 00 
    3775:	74 05                	je     377c <bli_set_dims_incs_uplo_1m_noswap+0x2b2>
    3777:	e8 d4 da ff ff       	callq  1250 <__stack_chk_fail@plt>
    377c:	c9                   	leaveq 
    377d:	c3                   	retq   

000000000000377e <bli_set_dims_incs_2m>:
    377e:	f3 0f 1e fa          	endbr64 
    3782:	55                   	push   %rbp
    3783:	48 89 e5             	mov    %rsp,%rbp
    3786:	48 83 ec 30          	sub    $0x30,%rsp
    378a:	89 7d fc             	mov    %edi,-0x4(%rbp)
    378d:	48 89 75 f0          	mov    %rsi,-0x10(%rbp)
    3791:	48 89 55 e8          	mov    %rdx,-0x18(%rbp)
    3795:	48 89 4d e0          	mov    %rcx,-0x20(%rbp)
    3799:	4c 89 45 d8          	mov    %r8,-0x28(%rbp)
    379d:	4c 89 4d d0          	mov    %r9,-0x30(%rbp)
    37a1:	48 8b 45 20          	mov    0x20(%rbp),%rax
    37a5:	48 8b 55 e8          	mov    -0x18(%rbp),%rdx
    37a9:	48 89 10             	mov    %rdx,(%rax)
    37ac:	48 8b 45 18          	mov    0x18(%rbp),%rax
    37b0:	48 8b 55 f0          	mov    -0x10(%rbp),%rdx
    37b4:	48 89 10             	mov    %rdx,(%rax)
    37b7:	48 8b 45 28          	mov    0x28(%rbp),%rax
    37bb:	48 8b 55 e0          	mov    -0x20(%rbp),%rdx
    37bf:	48 89 10             	mov    %rdx,(%rax)
    37c2:	48 8b 45 30          	mov    0x30(%rbp),%rax
    37c6:	48 8b 55 d8          	mov    -0x28(%rbp),%rdx
    37ca:	48 89 10             	mov    %rdx,(%rax)
    37cd:	48 8b 45 38          	mov    0x38(%rbp),%rax
    37d1:	48 8b 55 d0          	mov    -0x30(%rbp),%rdx
    37d5:	48 89 10             	mov    %rdx,(%rax)
    37d8:	48 8b 45 40          	mov    0x40(%rbp),%rax
    37dc:	48 8b 55 10          	mov    0x10(%rbp),%rdx
    37e0:	48 89 10             	mov    %rdx,(%rax)
    37e3:	8b 45 fc             	mov    -0x4(%rbp),%eax
    37e6:	89 c7                	mov    %eax,%edi
    37e8:	e8 97 e3 ff ff       	callq  1b84 <bli_does_trans>
    37ed:	84 c0                	test   %al,%al
    37ef:	74 13                	je     3804 <bli_set_dims_incs_2m+0x86>
    37f1:	48 8b 55 30          	mov    0x30(%rbp),%rdx
    37f5:	48 8b 45 28          	mov    0x28(%rbp),%rax
    37f9:	48 89 d6             	mov    %rdx,%rsi
    37fc:	48 89 c7             	mov    %rax,%rdi
    37ff:	e8 0b e0 ff ff       	callq  180f <bli_swap_incs>
    3804:	48 8b 45 40          	mov    0x40(%rbp),%rax
    3808:	48 8b 08             	mov    (%rax),%rcx
    380b:	48 8b 45 38          	mov    0x38(%rbp),%rax
    380f:	48 8b 10             	mov    (%rax),%rdx
    3812:	48 8b 45 20          	mov    0x20(%rbp),%rax
    3816:	48 8b 30             	mov    (%rax),%rsi
    3819:	48 8b 45 18          	mov    0x18(%rbp),%rax
    381d:	48 8b 00             	mov    (%rax),%rax
    3820:	48 89 c7             	mov    %rax,%rdi
    3823:	e8 c4 ea ff ff       	callq  22ec <bli_is_row_tilted>
    3828:	84 c0                	test   %al,%al
    382a:	74 61                	je     388d <bli_set_dims_incs_2m+0x10f>
    382c:	48 8b 45 30          	mov    0x30(%rbp),%rax
    3830:	48 8b 08             	mov    (%rax),%rcx
    3833:	48 8b 45 28          	mov    0x28(%rbp),%rax
    3837:	48 8b 10             	mov    (%rax),%rdx
    383a:	48 8b 45 20          	mov    0x20(%rbp),%rax
    383e:	48 8b 30             	mov    (%rax),%rsi
    3841:	48 8b 45 18          	mov    0x18(%rbp),%rax
    3845:	48 8b 00             	mov    (%rax),%rax
    3848:	48 89 c7             	mov    %rax,%rdi
    384b:	e8 9c ea ff ff       	callq  22ec <bli_is_row_tilted>
    3850:	84 c0                	test   %al,%al
    3852:	74 39                	je     388d <bli_set_dims_incs_2m+0x10f>
    3854:	48 8b 55 18          	mov    0x18(%rbp),%rdx
    3858:	48 8b 45 20          	mov    0x20(%rbp),%rax
    385c:	48 89 d6             	mov    %rdx,%rsi
    385f:	48 89 c7             	mov    %rax,%rdi
    3862:	e8 71 df ff ff       	callq  17d8 <bli_swap_dims>
    3867:	48 8b 55 30          	mov    0x30(%rbp),%rdx
    386b:	48 8b 45 28          	mov    0x28(%rbp),%rax
    386f:	48 89 d6             	mov    %rdx,%rsi
    3872:	48 89 c7             	mov    %rax,%rdi
    3875:	e8 95 df ff ff       	callq  180f <bli_swap_incs>
    387a:	48 8b 55 40          	mov    0x40(%rbp),%rdx
    387e:	48 8b 45 38          	mov    0x38(%rbp),%rax
    3882:	48 89 d6             	mov    %rdx,%rsi
    3885:	48 89 c7             	mov    %rax,%rdi
    3888:	e8 82 df ff ff       	callq  180f <bli_swap_incs>
    388d:	90                   	nop
    388e:	c9                   	leaveq 
    388f:	c3                   	retq   

0000000000003890 <bli_set_dims_incs_uplo_2m>:
    3890:	f3 0f 1e fa          	endbr64 
    3894:	55                   	push   %rbp
    3895:	48 89 e5             	mov    %rsp,%rbp
    3898:	48 81 ec 90 00 00 00 	sub    $0x90,%rsp
    389f:	48 89 7d d8          	mov    %rdi,-0x28(%rbp)
    38a3:	89 75 d4             	mov    %esi,-0x2c(%rbp)
    38a6:	89 55 d0             	mov    %edx,-0x30(%rbp)
    38a9:	89 4d cc             	mov    %ecx,-0x34(%rbp)
    38ac:	4c 89 45 c0          	mov    %r8,-0x40(%rbp)
    38b0:	4c 89 4d b8          	mov    %r9,-0x48(%rbp)
    38b4:	48 8b 45 30          	mov    0x30(%rbp),%rax
    38b8:	48 89 45 b0          	mov    %rax,-0x50(%rbp)
    38bc:	48 8b 45 38          	mov    0x38(%rbp),%rax
    38c0:	48 89 45 a8          	mov    %rax,-0x58(%rbp)
    38c4:	48 8b 45 40          	mov    0x40(%rbp),%rax
    38c8:	48 89 45 a0          	mov    %rax,-0x60(%rbp)
    38cc:	48 8b 45 48          	mov    0x48(%rbp),%rax
    38d0:	48 89 45 98          	mov    %rax,-0x68(%rbp)
    38d4:	48 8b 45 50          	mov    0x50(%rbp),%rax
    38d8:	48 89 45 90          	mov    %rax,-0x70(%rbp)
    38dc:	48 8b 45 58          	mov    0x58(%rbp),%rax
    38e0:	48 89 45 88          	mov    %rax,-0x78(%rbp)
    38e4:	48 8b 45 60          	mov    0x60(%rbp),%rax
    38e8:	48 89 45 80          	mov    %rax,-0x80(%rbp)
    38ec:	48 8b 45 68          	mov    0x68(%rbp),%rax
    38f0:	48 89 85 78 ff ff ff 	mov    %rax,-0x88(%rbp)
    38f7:	48 8b 45 70          	mov    0x70(%rbp),%rax
    38fb:	48 89 85 70 ff ff ff 	mov    %rax,-0x90(%rbp)
    3902:	64 48 8b 04 25 28 00 	mov    %fs:0x28,%rax
    3909:	00 00 
    390b:	48 89 45 f8          	mov    %rax,-0x8(%rbp)
    390f:	31 c0                	xor    %eax,%eax
    3911:	48 8b 85 78 ff ff ff 	mov    -0x88(%rbp),%rax
    3918:	48 c7 00 00 00 00 00 	movq   $0x0,(%rax)
    391f:	48 8b 85 70 ff ff ff 	mov    -0x90(%rbp),%rax
    3926:	48 c7 00 00 00 00 00 	movq   $0x0,(%rax)
    392d:	48 8b 7d b8          	mov    -0x48(%rbp),%rdi
    3931:	48 8b 4d c0          	mov    -0x40(%rbp),%rcx
    3935:	8b 55 cc             	mov    -0x34(%rbp),%edx
    3938:	8b 75 d0             	mov    -0x30(%rbp),%esi
    393b:	48 8b 45 d8          	mov    -0x28(%rbp),%rax
    393f:	49 89 f8             	mov    %rdi,%r8
    3942:	48 89 c7             	mov    %rax,%rdi
    3945:	e8 93 ed ff ff       	callq  26dd <bli_is_unstored_subpart>
    394a:	84 c0                	test   %al,%al
    394c:	74 0f                	je     395d <bli_set_dims_incs_uplo_2m+0xcd>
    394e:	48 8b 45 b0          	mov    -0x50(%rbp),%rax
    3952:	c7 00 00 00 00 00    	movl   $0x0,(%rax)
    3958:	e9 f5 02 00 00       	jmpq   3c52 <bli_set_dims_incs_uplo_2m+0x3c2>
    395d:	48 8b 45 d8          	mov    -0x28(%rbp),%rax
    3961:	48 89 45 e0          	mov    %rax,-0x20(%rbp)
    3965:	8b 45 d4             	mov    -0x2c(%rbp),%eax
    3968:	89 c7                	mov    %eax,%edi
    396a:	e8 3c e5 ff ff       	callq  1eab <bli_is_unit_diag>
    396f:	84 c0                	test   %al,%al
    3971:	74 11                	je     3984 <bli_set_dims_incs_uplo_2m+0xf4>
    3973:	48 8d 55 e0          	lea    -0x20(%rbp),%rdx
    3977:	8b 45 cc             	mov    -0x34(%rbp),%eax
    397a:	48 89 d6             	mov    %rdx,%rsi
    397d:	89 c7                	mov    %eax,%edi
    397f:	e8 62 eb ff ff       	callq  24e6 <bli_shift_diag_offset_to_shrink_uplo>
    3984:	48 8b 45 e0          	mov    -0x20(%rbp),%rax
    3988:	48 8b 7d b8          	mov    -0x48(%rbp),%rdi
    398c:	48 8b 4d c0          	mov    -0x40(%rbp),%rcx
    3990:	8b 55 cc             	mov    -0x34(%rbp),%edx
    3993:	8b 75 d0             	mov    -0x30(%rbp),%esi
    3996:	49 89 f8             	mov    %rdi,%r8
    3999:	48 89 c7             	mov    %rax,%rdi
    399c:	e8 bb ec ff ff       	callq  265c <bli_is_stored_subpart>
    39a1:	84 c0                	test   %al,%al
    39a3:	74 07                	je     39ac <bli_set_dims_incs_uplo_2m+0x11c>
    39a5:	c7 45 cc e0 00 00 00 	movl   $0xe0,-0x34(%rbp)
    39ac:	48 8b 45 b8          	mov    -0x48(%rbp),%rax
    39b0:	48 89 45 f0          	mov    %rax,-0x10(%rbp)
    39b4:	48 8b 45 a8          	mov    -0x58(%rbp),%rax
    39b8:	48 8b 55 c0          	mov    -0x40(%rbp),%rdx
    39bc:	48 89 10             	mov    %rdx,(%rax)
    39bf:	48 8b 45 98          	mov    -0x68(%rbp),%rax
    39c3:	48 8b 55 10          	mov    0x10(%rbp),%rdx
    39c7:	48 89 10             	mov    %rdx,(%rax)
    39ca:	48 8b 45 90          	mov    -0x70(%rbp),%rax
    39ce:	48 8b 55 18          	mov    0x18(%rbp),%rdx
    39d2:	48 89 10             	mov    %rdx,(%rax)
    39d5:	48 8b 45 88          	mov    -0x78(%rbp),%rax
    39d9:	48 8b 55 20          	mov    0x20(%rbp),%rdx
    39dd:	48 89 10             	mov    %rdx,(%rax)
    39e0:	48 8b 45 80          	mov    -0x80(%rbp),%rax
    39e4:	48 8b 55 28          	mov    0x28(%rbp),%rdx
    39e8:	48 89 10             	mov    %rdx,(%rax)
    39eb:	48 8b 45 b0          	mov    -0x50(%rbp),%rax
    39ef:	8b 55 cc             	mov    -0x34(%rbp),%edx
    39f2:	89 10                	mov    %edx,(%rax)
    39f4:	48 8b 45 e0          	mov    -0x20(%rbp),%rax
    39f8:	48 89 45 e8          	mov    %rax,-0x18(%rbp)
    39fc:	8b 45 d0             	mov    -0x30(%rbp),%eax
    39ff:	89 c7                	mov    %eax,%edi
    3a01:	e8 7e e1 ff ff       	callq  1b84 <bli_does_trans>
    3a06:	84 c0                	test   %al,%al
    3a08:	74 2b                	je     3a35 <bli_set_dims_incs_uplo_2m+0x1a5>
    3a0a:	48 8b 55 90          	mov    -0x70(%rbp),%rdx
    3a0e:	48 8b 45 98          	mov    -0x68(%rbp),%rax
    3a12:	48 89 d6             	mov    %rdx,%rsi
    3a15:	48 89 c7             	mov    %rax,%rdi
    3a18:	e8 f2 dd ff ff       	callq  180f <bli_swap_incs>
    3a1d:	48 8b 45 b0          	mov    -0x50(%rbp),%rax
    3a21:	48 89 c7             	mov    %rax,%rdi
    3a24:	e8 3c e3 ff ff       	callq  1d65 <bli_toggle_uplo>
    3a29:	48 8d 45 e8          	lea    -0x18(%rbp),%rax
    3a2d:	48 89 c7             	mov    %rax,%rdi
    3a30:	e8 36 ea ff ff       	callq  246b <bli_negate_diag_offset>
    3a35:	48 8b 45 80          	mov    -0x80(%rbp),%rax
    3a39:	48 8b 08             	mov    (%rax),%rcx
    3a3c:	48 8b 45 88          	mov    -0x78(%rbp),%rax
    3a40:	48 8b 10             	mov    (%rax),%rdx
    3a43:	48 8b 75 f0          	mov    -0x10(%rbp),%rsi
    3a47:	48 8b 45 a8          	mov    -0x58(%rbp),%rax
    3a4b:	48 8b 00             	mov    (%rax),%rax
    3a4e:	48 89 c7             	mov    %rax,%rdi
    3a51:	e8 96 e8 ff ff       	callq  22ec <bli_is_row_tilted>
    3a56:	84 c0                	test   %al,%al
    3a58:	74 76                	je     3ad0 <bli_set_dims_incs_uplo_2m+0x240>
    3a5a:	48 8b 45 90          	mov    -0x70(%rbp),%rax
    3a5e:	48 8b 08             	mov    (%rax),%rcx
    3a61:	48 8b 45 98          	mov    -0x68(%rbp),%rax
    3a65:	48 8b 10             	mov    (%rax),%rdx
    3a68:	48 8b 75 f0          	mov    -0x10(%rbp),%rsi
    3a6c:	48 8b 45 a8          	mov    -0x58(%rbp),%rax
    3a70:	48 8b 00             	mov    (%rax),%rax
    3a73:	48 89 c7             	mov    %rax,%rdi
    3a76:	e8 71 e8 ff ff       	callq  22ec <bli_is_row_tilted>
    3a7b:	84 c0                	test   %al,%al
    3a7d:	74 51                	je     3ad0 <bli_set_dims_incs_uplo_2m+0x240>
    3a7f:	48 8b 55 a8          	mov    -0x58(%rbp),%rdx
    3a83:	48 8d 45 f0          	lea    -0x10(%rbp),%rax
    3a87:	48 89 d6             	mov    %rdx,%rsi
    3a8a:	48 89 c7             	mov    %rax,%rdi
    3a8d:	e8 46 dd ff ff       	callq  17d8 <bli_swap_dims>
    3a92:	48 8b 55 90          	mov    -0x70(%rbp),%rdx
    3a96:	48 8b 45 98          	mov    -0x68(%rbp),%rax
    3a9a:	48 89 d6             	mov    %rdx,%rsi
    3a9d:	48 89 c7             	mov    %rax,%rdi
    3aa0:	e8 6a dd ff ff       	callq  180f <bli_swap_incs>
    3aa5:	48 8b 55 80          	mov    -0x80(%rbp),%rdx
    3aa9:	48 8b 45 88          	mov    -0x78(%rbp),%rax
    3aad:	48 89 d6             	mov    %rdx,%rsi
    3ab0:	48 89 c7             	mov    %rax,%rdi
    3ab3:	e8 57 dd ff ff       	callq  180f <bli_swap_incs>
    3ab8:	48 8b 45 b0          	mov    -0x50(%rbp),%rax
    3abc:	48 89 c7             	mov    %rax,%rdi
    3abf:	e8 a1 e2 ff ff       	callq  1d65 <bli_toggle_uplo>
    3ac4:	48 8d 45 e8          	lea    -0x18(%rbp),%rax
    3ac8:	48 89 c7             	mov    %rax,%rdi
    3acb:	e8 9b e9 ff ff       	callq  246b <bli_negate_diag_offset>
    3ad0:	48 8b 45 b0          	mov    -0x50(%rbp),%rax
    3ad4:	8b 00                	mov    (%rax),%eax
    3ad6:	89 c7                	mov    %eax,%edi
    3ad8:	e8 34 e2 ff ff       	callq  1d11 <bli_is_dense>
    3add:	84 c0                	test   %al,%al
    3adf:	74 10                	je     3af1 <bli_set_dims_incs_uplo_2m+0x261>
    3ae1:	48 8b 55 f0          	mov    -0x10(%rbp),%rdx
    3ae5:	48 8b 45 a0          	mov    -0x60(%rbp),%rax
    3ae9:	48 89 10             	mov    %rdx,(%rax)
    3aec:	e9 61 01 00 00       	jmpq   3c52 <bli_set_dims_incs_uplo_2m+0x3c2>
    3af1:	48 8b 45 b0          	mov    -0x50(%rbp),%rax
    3af5:	8b 00                	mov    (%rax),%eax
    3af7:	89 c7                	mov    %eax,%edi
    3af9:	e8 c3 e1 ff ff       	callq  1cc1 <bli_is_upper>
    3afe:	84 c0                	test   %al,%al
    3b00:	0f 84 9d 00 00 00    	je     3ba3 <bli_set_dims_incs_uplo_2m+0x313>
    3b06:	48 8b 45 e8          	mov    -0x18(%rbp),%rax
    3b0a:	48 85 c0             	test   %rax,%rax
    3b0d:	79 61                	jns    3b70 <bli_set_dims_incs_uplo_2m+0x2e0>
    3b0f:	48 8b 85 78 ff ff ff 	mov    -0x88(%rbp),%rax
    3b16:	48 c7 00 00 00 00 00 	movq   $0x0,(%rax)
    3b1d:	48 8b 45 e8          	mov    -0x18(%rbp),%rax
    3b21:	48 f7 d8             	neg    %rax
    3b24:	48 89 c2             	mov    %rax,%rdx
    3b27:	48 8b 85 70 ff ff ff 	mov    -0x90(%rbp),%rax
    3b2e:	48 89 10             	mov    %rdx,(%rax)
    3b31:	48 8b 85 70 ff ff ff 	mov    -0x90(%rbp),%rax
    3b38:	48 8b 10             	mov    (%rax),%rdx
    3b3b:	48 8b 45 c0          	mov    -0x40(%rbp),%rax
    3b3f:	48 39 45 b8          	cmp    %rax,-0x48(%rbp)
    3b43:	48 0f 4e 45 b8       	cmovle -0x48(%rbp),%rax
    3b48:	48 01 c2             	add    %rax,%rdx
    3b4b:	48 8b 45 a8          	mov    -0x58(%rbp),%rax
    3b4f:	48 8b 00             	mov    (%rax),%rax
    3b52:	48 39 c2             	cmp    %rax,%rdx
    3b55:	48 0f 4f d0          	cmovg  %rax,%rdx
    3b59:	48 8b 45 a8          	mov    -0x58(%rbp),%rax
    3b5d:	48 89 10             	mov    %rdx,(%rax)
    3b60:	48 8b 55 f0          	mov    -0x10(%rbp),%rdx
    3b64:	48 8b 45 a0          	mov    -0x60(%rbp),%rax
    3b68:	48 89 10             	mov    %rdx,(%rax)
    3b6b:	e9 e2 00 00 00       	jmpq   3c52 <bli_set_dims_incs_uplo_2m+0x3c2>
    3b70:	48 8b 55 e8          	mov    -0x18(%rbp),%rdx
    3b74:	48 8b 85 78 ff ff ff 	mov    -0x88(%rbp),%rax
    3b7b:	48 89 10             	mov    %rdx,(%rax)
    3b7e:	48 8b 85 70 ff ff ff 	mov    -0x90(%rbp),%rax
    3b85:	48 c7 00 00 00 00 00 	movq   $0x0,(%rax)
    3b8c:	48 8b 55 f0          	mov    -0x10(%rbp),%rdx
    3b90:	48 8b 45 e8          	mov    -0x18(%rbp),%rax
    3b94:	48 29 c2             	sub    %rax,%rdx
    3b97:	48 8b 45 a0          	mov    -0x60(%rbp),%rax
    3b9b:	48 89 10             	mov    %rdx,(%rax)
    3b9e:	e9 af 00 00 00       	jmpq   3c52 <bli_set_dims_incs_uplo_2m+0x3c2>
    3ba3:	48 8b 45 e8          	mov    -0x18(%rbp),%rax
    3ba7:	48 85 c0             	test   %rax,%rax
    3baa:	79 5e                	jns    3c0a <bli_set_dims_incs_uplo_2m+0x37a>
    3bac:	48 8b 45 e8          	mov    -0x18(%rbp),%rax
    3bb0:	48 f7 d8             	neg    %rax
    3bb3:	48 89 c2             	mov    %rax,%rdx
    3bb6:	48 8b 85 78 ff ff ff 	mov    -0x88(%rbp),%rax
    3bbd:	48 89 10             	mov    %rdx,(%rax)
    3bc0:	48 8b 85 70 ff ff ff 	mov    -0x90(%rbp),%rax
    3bc7:	48 c7 00 00 00 00 00 	movq   $0x0,(%rax)
    3bce:	48 8b 45 a8          	mov    -0x58(%rbp),%rax
    3bd2:	48 8b 10             	mov    (%rax),%rdx
    3bd5:	48 8b 45 e8          	mov    -0x18(%rbp),%rax
    3bd9:	48 01 c2             	add    %rax,%rdx
    3bdc:	48 8b 45 a8          	mov    -0x58(%rbp),%rax
    3be0:	48 89 10             	mov    %rdx,(%rax)
    3be3:	48 8b 45 c0          	mov    -0x40(%rbp),%rax
    3be7:	48 39 45 b8          	cmp    %rax,-0x48(%rbp)
    3beb:	48 0f 4e 45 b8       	cmovle -0x48(%rbp),%rax
    3bf0:	48 89 c2             	mov    %rax,%rdx
    3bf3:	48 8b 45 a8          	mov    -0x58(%rbp),%rax
    3bf7:	48 8b 00             	mov    (%rax),%rax
    3bfa:	48 39 c2             	cmp    %rax,%rdx
    3bfd:	48 0f 4f d0          	cmovg  %rax,%rdx
    3c01:	48 8b 45 a0          	mov    -0x60(%rbp),%rax
    3c05:	48 89 10             	mov    %rdx,(%rax)
    3c08:	eb 48                	jmp    3c52 <bli_set_dims_incs_uplo_2m+0x3c2>
    3c0a:	48 8b 85 78 ff ff ff 	mov    -0x88(%rbp),%rax
    3c11:	48 c7 00 00 00 00 00 	movq   $0x0,(%rax)
    3c18:	48 8b 55 e8          	mov    -0x18(%rbp),%rdx
    3c1c:	48 8b 85 70 ff ff ff 	mov    -0x90(%rbp),%rax
    3c23:	48 89 10             	mov    %rdx,(%rax)
    3c26:	48 8b 85 70 ff ff ff 	mov    -0x90(%rbp),%rax
    3c2d:	48 8b 10             	mov    (%rax),%rdx
    3c30:	48 8b 45 c0          	mov    -0x40(%rbp),%rax
    3c34:	48 39 45 b8          	cmp    %rax,-0x48(%rbp)
    3c38:	48 0f 4e 45 b8       	cmovle -0x48(%rbp),%rax
    3c3d:	48 01 c2             	add    %rax,%rdx
    3c40:	48 8b 45 f0          	mov    -0x10(%rbp),%rax
    3c44:	48 39 c2             	cmp    %rax,%rdx
    3c47:	48 0f 4f d0          	cmovg  %rax,%rdx
    3c4b:	48 8b 45 a0          	mov    -0x60(%rbp),%rax
    3c4f:	48 89 10             	mov    %rdx,(%rax)
    3c52:	90                   	nop
    3c53:	48 8b 45 f8          	mov    -0x8(%rbp),%rax
    3c57:	64 48 33 04 25 28 00 	xor    %fs:0x28,%rax
    3c5e:	00 00 
    3c60:	74 05                	je     3c67 <bli_set_dims_incs_uplo_2m+0x3d7>
    3c62:	e8 e9 d5 ff ff       	callq  1250 <__stack_chk_fail@plt>
    3c67:	c9                   	leaveq 
    3c68:	c3                   	retq   

0000000000003c69 <bli_set_dims_incs_1d>:
    3c69:	f3 0f 1e fa          	endbr64 
    3c6d:	55                   	push   %rbp
    3c6e:	48 89 e5             	mov    %rsp,%rbp
    3c71:	48 89 7d f8          	mov    %rdi,-0x8(%rbp)
    3c75:	48 89 75 f0          	mov    %rsi,-0x10(%rbp)
    3c79:	48 89 55 e8          	mov    %rdx,-0x18(%rbp)
    3c7d:	48 89 4d e0          	mov    %rcx,-0x20(%rbp)
    3c81:	4c 89 45 d8          	mov    %r8,-0x28(%rbp)
    3c85:	4c 89 4d d0          	mov    %r9,-0x30(%rbp)
    3c89:	48 83 7d f8 00       	cmpq   $0x0,-0x8(%rbp)
    3c8e:	79 36                	jns    3cc6 <bli_set_dims_incs_1d+0x5d>
    3c90:	48 8b 55 f0          	mov    -0x10(%rbp),%rdx
    3c94:	48 8b 45 f8          	mov    -0x8(%rbp),%rax
    3c98:	48 01 d0             	add    %rdx,%rax
    3c9b:	48 39 45 e8          	cmp    %rax,-0x18(%rbp)
    3c9f:	48 0f 4e 45 e8       	cmovle -0x18(%rbp),%rax
    3ca4:	48 89 c2             	mov    %rax,%rdx
    3ca7:	48 8b 45 10          	mov    0x10(%rbp),%rax
    3cab:	48 89 10             	mov    %rdx,(%rax)
    3cae:	48 8b 45 f8          	mov    -0x8(%rbp),%rax
    3cb2:	48 f7 d8             	neg    %rax
    3cb5:	48 0f af 45 e0       	imul   -0x20(%rbp),%rax
    3cba:	48 89 c2             	mov    %rax,%rdx
    3cbd:	48 8b 45 d0          	mov    -0x30(%rbp),%rax
    3cc1:	48 89 10             	mov    %rdx,(%rax)
    3cc4:	eb 2e                	jmp    3cf4 <bli_set_dims_incs_1d+0x8b>
    3cc6:	48 8b 45 e8          	mov    -0x18(%rbp),%rax
    3cca:	48 2b 45 f8          	sub    -0x8(%rbp),%rax
    3cce:	48 39 45 f0          	cmp    %rax,-0x10(%rbp)
    3cd2:	48 0f 4e 45 f0       	cmovle -0x10(%rbp),%rax
    3cd7:	48 89 c2             	mov    %rax,%rdx
    3cda:	48 8b 45 10          	mov    0x10(%rbp),%rax
    3cde:	48 89 10             	mov    %rdx,(%rax)
    3ce1:	48 8b 45 f8          	mov    -0x8(%rbp),%rax
    3ce5:	48 0f af 45 d8       	imul   -0x28(%rbp),%rax
    3cea:	48 89 c2             	mov    %rax,%rdx
    3ced:	48 8b 45 d0          	mov    -0x30(%rbp),%rax
    3cf1:	48 89 10             	mov    %rdx,(%rax)
    3cf4:	48 8b 55 e0          	mov    -0x20(%rbp),%rdx
    3cf8:	48 8b 45 d8          	mov    -0x28(%rbp),%rax
    3cfc:	48 01 c2             	add    %rax,%rdx
    3cff:	48 8b 45 18          	mov    0x18(%rbp),%rax
    3d03:	48 89 10             	mov    %rdx,(%rax)
    3d06:	90                   	nop
    3d07:	5d                   	pop    %rbp
    3d08:	c3                   	retq   

0000000000003d09 <bli_set_dims_incs_2d>:
    3d09:	f3 0f 1e fa          	endbr64 
    3d0d:	55                   	push   %rbp
    3d0e:	48 89 e5             	mov    %rsp,%rbp
    3d11:	48 83 ec 40          	sub    $0x40,%rsp
    3d15:	48 89 7d e8          	mov    %rdi,-0x18(%rbp)
    3d19:	89 75 e4             	mov    %esi,-0x1c(%rbp)
    3d1c:	48 89 55 d8          	mov    %rdx,-0x28(%rbp)
    3d20:	48 89 4d d0          	mov    %rcx,-0x30(%rbp)
    3d24:	4c 89 45 c8          	mov    %r8,-0x38(%rbp)
    3d28:	4c 89 4d c0          	mov    %r9,-0x40(%rbp)
    3d2c:	48 8b 55 e8          	mov    -0x18(%rbp),%rdx
    3d30:	8b 45 e4             	mov    -0x1c(%rbp),%eax
    3d33:	48 89 d6             	mov    %rdx,%rsi
    3d36:	89 c7                	mov    %eax,%edi
    3d38:	e8 01 e8 ff ff       	callq  253e <bli_diag_offset_with_trans>
    3d3d:	48 89 45 f8          	mov    %rax,-0x8(%rbp)
    3d41:	48 83 7d e8 00       	cmpq   $0x0,-0x18(%rbp)
    3d46:	79 18                	jns    3d60 <bli_set_dims_incs_2d+0x57>
    3d48:	48 8b 45 e8          	mov    -0x18(%rbp),%rax
    3d4c:	48 f7 d8             	neg    %rax
    3d4f:	48 0f af 45 c8       	imul   -0x38(%rbp),%rax
    3d54:	48 89 c2             	mov    %rax,%rdx
    3d57:	48 8b 45 20          	mov    0x20(%rbp),%rax
    3d5b:	48 89 10             	mov    %rdx,(%rax)
    3d5e:	eb 13                	jmp    3d73 <bli_set_dims_incs_2d+0x6a>
    3d60:	48 8b 45 e8          	mov    -0x18(%rbp),%rax
    3d64:	48 0f af 45 c0       	imul   -0x40(%rbp),%rax
    3d69:	48 89 c2             	mov    %rax,%rdx
    3d6c:	48 8b 45 20          	mov    0x20(%rbp),%rax
    3d70:	48 89 10             	mov    %rdx,(%rax)
    3d73:	48 83 7d f8 00       	cmpq   $0x0,-0x8(%rbp)
    3d78:	79 36                	jns    3db0 <bli_set_dims_incs_2d+0xa7>
    3d7a:	48 8b 55 d8          	mov    -0x28(%rbp),%rdx
    3d7e:	48 8b 45 f8          	mov    -0x8(%rbp),%rax
    3d82:	48 01 d0             	add    %rdx,%rax
    3d85:	48 39 45 d0          	cmp    %rax,-0x30(%rbp)
    3d89:	48 0f 4e 45 d0       	cmovle -0x30(%rbp),%rax
    3d8e:	48 89 c2             	mov    %rax,%rdx
    3d91:	48 8b 45 30          	mov    0x30(%rbp),%rax
    3d95:	48 89 10             	mov    %rdx,(%rax)
    3d98:	48 8b 45 f8          	mov    -0x8(%rbp),%rax
    3d9c:	48 f7 d8             	neg    %rax
    3d9f:	48 0f af 45 10       	imul   0x10(%rbp),%rax
    3da4:	48 89 c2             	mov    %rax,%rdx
    3da7:	48 8b 45 28          	mov    0x28(%rbp),%rax
    3dab:	48 89 10             	mov    %rdx,(%rax)
    3dae:	eb 2e                	jmp    3dde <bli_set_dims_incs_2d+0xd5>
    3db0:	48 8b 45 d0          	mov    -0x30(%rbp),%rax
    3db4:	48 2b 45 f8          	sub    -0x8(%rbp),%rax
    3db8:	48 39 45 d8          	cmp    %rax,-0x28(%rbp)
    3dbc:	48 0f 4e 45 d8       	cmovle -0x28(%rbp),%rax
    3dc1:	48 89 c2             	mov    %rax,%rdx
    3dc4:	48 8b 45 30          	mov    0x30(%rbp),%rax
    3dc8:	48 89 10             	mov    %rdx,(%rax)
    3dcb:	48 8b 45 f8          	mov    -0x8(%rbp),%rax
    3dcf:	48 0f af 45 18       	imul   0x18(%rbp),%rax
    3dd4:	48 89 c2             	mov    %rax,%rdx
    3dd7:	48 8b 45 28          	mov    0x28(%rbp),%rax
    3ddb:	48 89 10             	mov    %rdx,(%rax)
    3dde:	48 8b 55 c8          	mov    -0x38(%rbp),%rdx
    3de2:	48 8b 45 c0          	mov    -0x40(%rbp),%rax
    3de6:	48 01 c2             	add    %rax,%rdx
    3de9:	48 8b 45 38          	mov    0x38(%rbp),%rax
    3ded:	48 89 10             	mov    %rdx,(%rax)
    3df0:	48 8b 55 10          	mov    0x10(%rbp),%rdx
    3df4:	48 8b 45 18          	mov    0x18(%rbp),%rax
    3df8:	48 01 c2             	add    %rax,%rdx
    3dfb:	48 8b 45 40          	mov    0x40(%rbp),%rax
    3dff:	48 89 10             	mov    %rdx,(%rax)
    3e02:	90                   	nop
    3e03:	c9                   	leaveq 
    3e04:	c3                   	retq   

0000000000003e05 <bli_obj_dt>:
    3e05:	f3 0f 1e fa          	endbr64 
    3e09:	55                   	push   %rbp
    3e0a:	48 89 e5             	mov    %rsp,%rbp
    3e0d:	48 89 7d f8          	mov    %rdi,-0x8(%rbp)
    3e11:	48 8b 45 f8          	mov    -0x8(%rbp),%rax
    3e15:	8b 40 30             	mov    0x30(%rax),%eax
    3e18:	83 e0 07             	and    $0x7,%eax
    3e1b:	5d                   	pop    %rbp
    3e1c:	c3                   	retq   

0000000000003e1d <bli_obj_is_float>:
    3e1d:	f3 0f 1e fa          	endbr64 
    3e21:	55                   	push   %rbp
    3e22:	48 89 e5             	mov    %rsp,%rbp
    3e25:	48 83 ec 08          	sub    $0x8,%rsp
    3e29:	48 89 7d f8          	mov    %rdi,-0x8(%rbp)
    3e2d:	48 8b 45 f8          	mov    -0x8(%rbp),%rax
    3e31:	48 89 c7             	mov    %rax,%rdi
    3e34:	e8 cc ff ff ff       	callq  3e05 <bli_obj_dt>
    3e39:	85 c0                	test   %eax,%eax
    3e3b:	0f 94 c0             	sete   %al
    3e3e:	c9                   	leaveq 
    3e3f:	c3                   	retq   

0000000000003e40 <bli_obj_is_double>:
    3e40:	f3 0f 1e fa          	endbr64 
    3e44:	55                   	push   %rbp
    3e45:	48 89 e5             	mov    %rsp,%rbp
    3e48:	48 83 ec 08          	sub    $0x8,%rsp
    3e4c:	48 89 7d f8          	mov    %rdi,-0x8(%rbp)
    3e50:	48 8b 45 f8          	mov    -0x8(%rbp),%rax
    3e54:	48 89 c7             	mov    %rax,%rdi
    3e57:	e8 a9 ff ff ff       	callq  3e05 <bli_obj_dt>
    3e5c:	83 f8 02             	cmp    $0x2,%eax
    3e5f:	0f 94 c0             	sete   %al
    3e62:	c9                   	leaveq 
    3e63:	c3                   	retq   

0000000000003e64 <bli_obj_is_scomplex>:
    3e64:	f3 0f 1e fa          	endbr64 
    3e68:	55                   	push   %rbp
    3e69:	48 89 e5             	mov    %rsp,%rbp
    3e6c:	48 83 ec 08          	sub    $0x8,%rsp
    3e70:	48 89 7d f8          	mov    %rdi,-0x8(%rbp)
    3e74:	48 8b 45 f8          	mov    -0x8(%rbp),%rax
    3e78:	48 89 c7             	mov    %rax,%rdi
    3e7b:	e8 85 ff ff ff       	callq  3e05 <bli_obj_dt>
    3e80:	83 f8 01             	cmp    $0x1,%eax
    3e83:	0f 94 c0             	sete   %al
    3e86:	c9                   	leaveq 
    3e87:	c3                   	retq   

0000000000003e88 <bli_obj_is_dcomplex>:
    3e88:	f3 0f 1e fa          	endbr64 
    3e8c:	55                   	push   %rbp
    3e8d:	48 89 e5             	mov    %rsp,%rbp
    3e90:	48 83 ec 08          	sub    $0x8,%rsp
    3e94:	48 89 7d f8          	mov    %rdi,-0x8(%rbp)
    3e98:	48 8b 45 f8          	mov    -0x8(%rbp),%rax
    3e9c:	48 89 c7             	mov    %rax,%rdi
    3e9f:	e8 61 ff ff ff       	callq  3e05 <bli_obj_dt>
    3ea4:	83 f8 03             	cmp    $0x3,%eax
    3ea7:	0f 94 c0             	sete   %al
    3eaa:	c9                   	leaveq 
    3eab:	c3                   	retq   

0000000000003eac <bli_obj_is_int>:
    3eac:	f3 0f 1e fa          	endbr64 
    3eb0:	55                   	push   %rbp
    3eb1:	48 89 e5             	mov    %rsp,%rbp
    3eb4:	48 83 ec 08          	sub    $0x8,%rsp
    3eb8:	48 89 7d f8          	mov    %rdi,-0x8(%rbp)
    3ebc:	48 8b 45 f8          	mov    -0x8(%rbp),%rax
    3ec0:	48 89 c7             	mov    %rax,%rdi
    3ec3:	e8 3d ff ff ff       	callq  3e05 <bli_obj_dt>
    3ec8:	83 f8 04             	cmp    $0x4,%eax
    3ecb:	0f 94 c0             	sete   %al
    3ece:	c9                   	leaveq 
    3ecf:	c3                   	retq   

0000000000003ed0 <bli_obj_is_const>:
    3ed0:	f3 0f 1e fa          	endbr64 
    3ed4:	55                   	push   %rbp
    3ed5:	48 89 e5             	mov    %rsp,%rbp
    3ed8:	48 83 ec 08          	sub    $0x8,%rsp
    3edc:	48 89 7d f8          	mov    %rdi,-0x8(%rbp)
    3ee0:	48 8b 45 f8          	mov    -0x8(%rbp),%rax
    3ee4:	48 89 c7             	mov    %rax,%rdi
    3ee7:	e8 19 ff ff ff       	callq  3e05 <bli_obj_dt>
    3eec:	83 f8 05             	cmp    $0x5,%eax
    3eef:	0f 94 c0             	sete   %al
    3ef2:	c9                   	leaveq 
    3ef3:	c3                   	retq   

0000000000003ef4 <bli_obj_domain>:
    3ef4:	f3 0f 1e fa          	endbr64 
    3ef8:	55                   	push   %rbp
    3ef9:	48 89 e5             	mov    %rsp,%rbp
    3efc:	48 89 7d f8          	mov    %rdi,-0x8(%rbp)
    3f00:	48 8b 45 f8          	mov    -0x8(%rbp),%rax
    3f04:	8b 40 30             	mov    0x30(%rax),%eax
    3f07:	83 e0 01             	and    $0x1,%eax
    3f0a:	5d                   	pop    %rbp
    3f0b:	c3                   	retq   

0000000000003f0c <bli_obj_prec>:
    3f0c:	f3 0f 1e fa          	endbr64 
    3f10:	55                   	push   %rbp
    3f11:	48 89 e5             	mov    %rsp,%rbp
    3f14:	48 89 7d f8          	mov    %rdi,-0x8(%rbp)
    3f18:	48 8b 45 f8          	mov    -0x8(%rbp),%rax
    3f1c:	8b 40 30             	mov    0x30(%rax),%eax
    3f1f:	83 e0 02             	and    $0x2,%eax
    3f22:	5d                   	pop    %rbp
    3f23:	c3                   	retq   

0000000000003f24 <bli_obj_is_single_prec>:
    3f24:	f3 0f 1e fa          	endbr64 
    3f28:	55                   	push   %rbp
    3f29:	48 89 e5             	mov    %rsp,%rbp
    3f2c:	48 83 ec 08          	sub    $0x8,%rsp
    3f30:	48 89 7d f8          	mov    %rdi,-0x8(%rbp)
    3f34:	48 8b 45 f8          	mov    -0x8(%rbp),%rax
    3f38:	48 89 c7             	mov    %rax,%rdi
    3f3b:	e8 cc ff ff ff       	callq  3f0c <bli_obj_prec>
    3f40:	85 c0                	test   %eax,%eax
    3f42:	0f 94 c0             	sete   %al
    3f45:	c9                   	leaveq 
    3f46:	c3                   	retq   

0000000000003f47 <bli_obj_is_double_prec>:
    3f47:	f3 0f 1e fa          	endbr64 
    3f4b:	55                   	push   %rbp
    3f4c:	48 89 e5             	mov    %rsp,%rbp
    3f4f:	48 83 ec 08          	sub    $0x8,%rsp
    3f53:	48 89 7d f8          	mov    %rdi,-0x8(%rbp)
    3f57:	48 8b 45 f8          	mov    -0x8(%rbp),%rax
    3f5b:	48 89 c7             	mov    %rax,%rdi
    3f5e:	e8 a9 ff ff ff       	callq  3f0c <bli_obj_prec>
    3f63:	83 f8 02             	cmp    $0x2,%eax
    3f66:	0f 94 c0             	sete   %al
    3f69:	c9                   	leaveq 
    3f6a:	c3                   	retq   

0000000000003f6b <bli_obj_dt_proj_to_single_prec>:
    3f6b:	f3 0f 1e fa          	endbr64 
    3f6f:	55                   	push   %rbp
    3f70:	48 89 e5             	mov    %rsp,%rbp
    3f73:	48 83 ec 08          	sub    $0x8,%rsp
    3f77:	48 89 7d f8          	mov    %rdi,-0x8(%rbp)
    3f7b:	48 8b 45 f8          	mov    -0x8(%rbp),%rax
    3f7f:	48 89 c7             	mov    %rax,%rdi
    3f82:	e8 7e fe ff ff       	callq  3e05 <bli_obj_dt>
    3f87:	c9                   	leaveq 
    3f88:	c3                   	retq   

0000000000003f89 <bli_obj_dt_proj_to_double_prec>:
    3f89:	f3 0f 1e fa          	endbr64 
    3f8d:	55                   	push   %rbp
    3f8e:	48 89 e5             	mov    %rsp,%rbp
    3f91:	48 83 ec 08          	sub    $0x8,%rsp
    3f95:	48 89 7d f8          	mov    %rdi,-0x8(%rbp)
    3f99:	48 8b 45 f8          	mov    -0x8(%rbp),%rax
    3f9d:	48 89 c7             	mov    %rax,%rdi
    3fa0:	e8 60 fe ff ff       	callq  3e05 <bli_obj_dt>
    3fa5:	83 c8 02             	or     $0x2,%eax
    3fa8:	c9                   	leaveq 
    3fa9:	c3                   	retq   

0000000000003faa <bli_obj_is_real>:
    3faa:	f3 0f 1e fa          	endbr64 
    3fae:	55                   	push   %rbp
    3faf:	48 89 e5             	mov    %rsp,%rbp
    3fb2:	48 83 ec 08          	sub    $0x8,%rsp
    3fb6:	48 89 7d f8          	mov    %rdi,-0x8(%rbp)
    3fba:	48 8b 45 f8          	mov    -0x8(%rbp),%rax
    3fbe:	48 89 c7             	mov    %rax,%rdi
    3fc1:	e8 2e ff ff ff       	callq  3ef4 <bli_obj_domain>
    3fc6:	85 c0                	test   %eax,%eax
    3fc8:	75 1a                	jne    3fe4 <bli_obj_is_real+0x3a>
    3fca:	48 8b 45 f8          	mov    -0x8(%rbp),%rax
    3fce:	48 89 c7             	mov    %rax,%rdi
    3fd1:	e8 fa fe ff ff       	callq  3ed0 <bli_obj_is_const>
    3fd6:	83 f0 01             	xor    $0x1,%eax
    3fd9:	84 c0                	test   %al,%al
    3fdb:	74 07                	je     3fe4 <bli_obj_is_real+0x3a>
    3fdd:	b8 01 00 00 00       	mov    $0x1,%eax
    3fe2:	eb 05                	jmp    3fe9 <bli_obj_is_real+0x3f>
    3fe4:	b8 00 00 00 00       	mov    $0x0,%eax
    3fe9:	83 e0 01             	and    $0x1,%eax
    3fec:	c9                   	leaveq 
    3fed:	c3                   	retq   

0000000000003fee <bli_obj_is_complex>:
    3fee:	f3 0f 1e fa          	endbr64 
    3ff2:	55                   	push   %rbp
    3ff3:	48 89 e5             	mov    %rsp,%rbp
    3ff6:	48 83 ec 08          	sub    $0x8,%rsp
    3ffa:	48 89 7d f8          	mov    %rdi,-0x8(%rbp)
    3ffe:	48 8b 45 f8          	mov    -0x8(%rbp),%rax
    4002:	48 89 c7             	mov    %rax,%rdi
    4005:	e8 ea fe ff ff       	callq  3ef4 <bli_obj_domain>
    400a:	83 f8 01             	cmp    $0x1,%eax
    400d:	75 1a                	jne    4029 <bli_obj_is_complex+0x3b>
    400f:	48 8b 45 f8          	mov    -0x8(%rbp),%rax
    4013:	48 89 c7             	mov    %rax,%rdi
    4016:	e8 b5 fe ff ff       	callq  3ed0 <bli_obj_is_const>
    401b:	83 f0 01             	xor    $0x1,%eax
    401e:	84 c0                	test   %al,%al
    4020:	74 07                	je     4029 <bli_obj_is_complex+0x3b>
    4022:	b8 01 00 00 00       	mov    $0x1,%eax
    4027:	eb 05                	jmp    402e <bli_obj_is_complex+0x40>
    4029:	b8 00 00 00 00       	mov    $0x0,%eax
    402e:	83 e0 01             	and    $0x1,%eax
    4031:	c9                   	leaveq 
    4032:	c3                   	retq   

0000000000004033 <bli_obj_dt_proj_to_real>:
    4033:	f3 0f 1e fa          	endbr64 
    4037:	55                   	push   %rbp
    4038:	48 89 e5             	mov    %rsp,%rbp
    403b:	48 83 ec 08          	sub    $0x8,%rsp
    403f:	48 89 7d f8          	mov    %rdi,-0x8(%rbp)
    4043:	48 8b 45 f8          	mov    -0x8(%rbp),%rax
    4047:	48 89 c7             	mov    %rax,%rdi
    404a:	e8 b6 fd ff ff       	callq  3e05 <bli_obj_dt>
    404f:	83 e0 fe             	and    $0xfffffffe,%eax
    4052:	c9                   	leaveq 
    4053:	c3                   	retq   

0000000000004054 <bli_obj_dt_proj_to_complex>:
    4054:	f3 0f 1e fa          	endbr64 
    4058:	55                   	push   %rbp
    4059:	48 89 e5             	mov    %rsp,%rbp
    405c:	48 83 ec 08          	sub    $0x8,%rsp
    4060:	48 89 7d f8          	mov    %rdi,-0x8(%rbp)
    4064:	48 8b 45 f8          	mov    -0x8(%rbp),%rax
    4068:	48 89 c7             	mov    %rax,%rdi
    406b:	e8 95 fd ff ff       	callq  3e05 <bli_obj_dt>
    4070:	83 c8 01             	or     $0x1,%eax
    4073:	c9                   	leaveq 
    4074:	c3                   	retq   

0000000000004075 <bli_obj_target_dt>:
    4075:	f3 0f 1e fa          	endbr64 
    4079:	55                   	push   %rbp
    407a:	48 89 e5             	mov    %rsp,%rbp
    407d:	48 89 7d f8          	mov    %rdi,-0x8(%rbp)
    4081:	48 8b 45 f8          	mov    -0x8(%rbp),%rax
    4085:	8b 40 30             	mov    0x30(%rax),%eax
    4088:	c1 e8 0a             	shr    $0xa,%eax
    408b:	83 e0 07             	and    $0x7,%eax
    408e:	5d                   	pop    %rbp
    408f:	c3                   	retq   

0000000000004090 <bli_obj_target_domain>:
    4090:	f3 0f 1e fa          	endbr64 
    4094:	55                   	push   %rbp
    4095:	48 89 e5             	mov    %rsp,%rbp
    4098:	48 89 7d f8          	mov    %rdi,-0x8(%rbp)
    409c:	48 8b 45 f8          	mov    -0x8(%rbp),%rax
    40a0:	8b 40 30             	mov    0x30(%rax),%eax
    40a3:	c1 e8 0a             	shr    $0xa,%eax
    40a6:	83 e0 01             	and    $0x1,%eax
    40a9:	5d                   	pop    %rbp
    40aa:	c3                   	retq   

00000000000040ab <bli_obj_target_prec>:
    40ab:	f3 0f 1e fa          	endbr64 
    40af:	55                   	push   %rbp
    40b0:	48 89 e5             	mov    %rsp,%rbp
    40b3:	48 89 7d f8          	mov    %rdi,-0x8(%rbp)
    40b7:	48 8b 45 f8          	mov    -0x8(%rbp),%rax
    40bb:	8b 40 30             	mov    0x30(%rax),%eax
    40be:	c1 e8 0a             	shr    $0xa,%eax
    40c1:	83 e0 02             	and    $0x2,%eax
    40c4:	5d                   	pop    %rbp
    40c5:	c3                   	retq   

00000000000040c6 <bli_obj_exec_dt>:
    40c6:	f3 0f 1e fa          	endbr64 
    40ca:	55                   	push   %rbp
    40cb:	48 89 e5             	mov    %rsp,%rbp
    40ce:	48 89 7d f8          	mov    %rdi,-0x8(%rbp)
    40d2:	48 8b 45 f8          	mov    -0x8(%rbp),%rax
    40d6:	8b 40 30             	mov    0x30(%rax),%eax
    40d9:	c1 e8 0d             	shr    $0xd,%eax
    40dc:	83 e0 07             	and    $0x7,%eax
    40df:	5d                   	pop    %rbp
    40e0:	c3                   	retq   

00000000000040e1 <bli_obj_exec_domain>:
    40e1:	f3 0f 1e fa          	endbr64 
    40e5:	55                   	push   %rbp
    40e6:	48 89 e5             	mov    %rsp,%rbp
    40e9:	48 89 7d f8          	mov    %rdi,-0x8(%rbp)
    40ed:	48 8b 45 f8          	mov    -0x8(%rbp),%rax
    40f1:	8b 40 30             	mov    0x30(%rax),%eax
    40f4:	c1 e8 0d             	shr    $0xd,%eax
    40f7:	83 e0 01             	and    $0x1,%eax
    40fa:	5d                   	pop    %rbp
    40fb:	c3                   	retq   

00000000000040fc <bli_obj_exec_prec>:
    40fc:	f3 0f 1e fa          	endbr64 
    4100:	55                   	push   %rbp
    4101:	48 89 e5             	mov    %rsp,%rbp
    4104:	48 89 7d f8          	mov    %rdi,-0x8(%rbp)
    4108:	48 8b 45 f8          	mov    -0x8(%rbp),%rax
    410c:	8b 40 30             	mov    0x30(%rax),%eax
    410f:	c1 e8 0d             	shr    $0xd,%eax
    4112:	83 e0 02             	and    $0x2,%eax
    4115:	5d                   	pop    %rbp
    4116:	c3                   	retq   

0000000000004117 <bli_obj_comp_dt>:
    4117:	f3 0f 1e fa          	endbr64 
    411b:	55                   	push   %rbp
    411c:	48 89 e5             	mov    %rsp,%rbp
    411f:	48 89 7d f8          	mov    %rdi,-0x8(%rbp)
    4123:	48 8b 45 f8          	mov    -0x8(%rbp),%rax
    4127:	8b 40 30             	mov    0x30(%rax),%eax
    412a:	c1 e8 1d             	shr    $0x1d,%eax
    412d:	5d                   	pop    %rbp
    412e:	c3                   	retq   

000000000000412f <bli_obj_comp_domain>:
    412f:	f3 0f 1e fa          	endbr64 
    4133:	55                   	push   %rbp
    4134:	48 89 e5             	mov    %rsp,%rbp
    4137:	48 89 7d f8          	mov    %rdi,-0x8(%rbp)
    413b:	48 8b 45 f8          	mov    -0x8(%rbp),%rax
    413f:	8b 40 30             	mov    0x30(%rax),%eax
    4142:	c1 e8 1d             	shr    $0x1d,%eax
    4145:	83 e0 01             	and    $0x1,%eax
    4148:	5d                   	pop    %rbp
    4149:	c3                   	retq   

000000000000414a <bli_obj_comp_prec>:
    414a:	f3 0f 1e fa          	endbr64 
    414e:	55                   	push   %rbp
    414f:	48 89 e5             	mov    %rsp,%rbp
    4152:	48 89 7d f8          	mov    %rdi,-0x8(%rbp)
    4156:	48 8b 45 f8          	mov    -0x8(%rbp),%rax
    415a:	8b 40 30             	mov    0x30(%rax),%eax
    415d:	c1 e8 1d             	shr    $0x1d,%eax
    4160:	83 e0 02             	and    $0x2,%eax
    4163:	5d                   	pop    %rbp
    4164:	c3                   	retq   

0000000000004165 <bli_obj_scalar_dt>:
    4165:	f3 0f 1e fa          	endbr64 
    4169:	55                   	push   %rbp
    416a:	48 89 e5             	mov    %rsp,%rbp
    416d:	48 89 7d f8          	mov    %rdi,-0x8(%rbp)
    4171:	48 8b 45 f8          	mov    -0x8(%rbp),%rax
    4175:	8b 40 34             	mov    0x34(%rax),%eax
    4178:	83 e0 07             	and    $0x7,%eax
    417b:	5d                   	pop    %rbp
    417c:	c3                   	retq   

000000000000417d <bli_obj_scalar_domain>:
    417d:	f3 0f 1e fa          	endbr64 
    4181:	55                   	push   %rbp
    4182:	48 89 e5             	mov    %rsp,%rbp
    4185:	48 89 7d f8          	mov    %rdi,-0x8(%rbp)
    4189:	48 8b 45 f8          	mov    -0x8(%rbp),%rax
    418d:	8b 40 34             	mov    0x34(%rax),%eax
    4190:	83 e0 01             	and    $0x1,%eax
    4193:	5d                   	pop    %rbp
    4194:	c3                   	retq   

0000000000004195 <bli_obj_scalar_prec>:
    4195:	f3 0f 1e fa          	endbr64 
    4199:	55                   	push   %rbp
    419a:	48 89 e5             	mov    %rsp,%rbp
    419d:	48 89 7d f8          	mov    %rdi,-0x8(%rbp)
    41a1:	48 8b 45 f8          	mov    -0x8(%rbp),%rax
    41a5:	8b 40 34             	mov    0x34(%rax),%eax
    41a8:	83 e0 02             	and    $0x2,%eax
    41ab:	5d                   	pop    %rbp
    41ac:	c3                   	retq   

00000000000041ad <bli_obj_conjtrans_status>:
    41ad:	f3 0f 1e fa          	endbr64 
    41b1:	55                   	push   %rbp
    41b2:	48 89 e5             	mov    %rsp,%rbp
    41b5:	48 89 7d f8          	mov    %rdi,-0x8(%rbp)
    41b9:	48 8b 45 f8          	mov    -0x8(%rbp),%rax
    41bd:	8b 40 30             	mov    0x30(%rax),%eax
    41c0:	83 e0 18             	and    $0x18,%eax
    41c3:	5d                   	pop    %rbp
    41c4:	c3                   	retq   

00000000000041c5 <bli_obj_onlytrans_status>:
    41c5:	f3 0f 1e fa          	endbr64 
    41c9:	55                   	push   %rbp
    41ca:	48 89 e5             	mov    %rsp,%rbp
    41cd:	48 89 7d f8          	mov    %rdi,-0x8(%rbp)
    41d1:	48 8b 45 f8          	mov    -0x8(%rbp),%rax
    41d5:	8b 40 30             	mov    0x30(%rax),%eax
    41d8:	83 e0 08             	and    $0x8,%eax
    41db:	5d                   	pop    %rbp
    41dc:	c3                   	retq   

00000000000041dd <bli_obj_has_trans>:
    41dd:	f3 0f 1e fa          	endbr64 
    41e1:	55                   	push   %rbp
    41e2:	48 89 e5             	mov    %rsp,%rbp
    41e5:	48 83 ec 08          	sub    $0x8,%rsp
    41e9:	48 89 7d f8          	mov    %rdi,-0x8(%rbp)
    41ed:	48 8b 45 f8          	mov    -0x8(%rbp),%rax
    41f1:	48 89 c7             	mov    %rax,%rdi
    41f4:	e8 cc ff ff ff       	callq  41c5 <bli_obj_onlytrans_status>
    41f9:	83 f8 08             	cmp    $0x8,%eax
    41fc:	0f 94 c0             	sete   %al
    41ff:	c9                   	leaveq 
    4200:	c3                   	retq   

0000000000004201 <bli_obj_has_notrans>:
    4201:	f3 0f 1e fa          	endbr64 
    4205:	55                   	push   %rbp
    4206:	48 89 e5             	mov    %rsp,%rbp
    4209:	48 83 ec 08          	sub    $0x8,%rsp
    420d:	48 89 7d f8          	mov    %rdi,-0x8(%rbp)
    4211:	48 8b 45 f8          	mov    -0x8(%rbp),%rax
    4215:	48 89 c7             	mov    %rax,%rdi
    4218:	e8 a8 ff ff ff       	callq  41c5 <bli_obj_onlytrans_status>
    421d:	85 c0                	test   %eax,%eax
    421f:	0f 94 c0             	sete   %al
    4222:	c9                   	leaveq 
    4223:	c3                   	retq   

0000000000004224 <bli_obj_conj_status>:
    4224:	f3 0f 1e fa          	endbr64 
    4228:	55                   	push   %rbp
    4229:	48 89 e5             	mov    %rsp,%rbp
    422c:	48 89 7d f8          	mov    %rdi,-0x8(%rbp)
    4230:	48 8b 45 f8          	mov    -0x8(%rbp),%rax
    4234:	8b 40 30             	mov    0x30(%rax),%eax
    4237:	83 e0 10             	and    $0x10,%eax
    423a:	5d                   	pop    %rbp
    423b:	c3                   	retq   

000000000000423c <bli_obj_has_conj>:
    423c:	f3 0f 1e fa          	endbr64 
    4240:	55                   	push   %rbp
    4241:	48 89 e5             	mov    %rsp,%rbp
    4244:	48 83 ec 08          	sub    $0x8,%rsp
    4248:	48 89 7d f8          	mov    %rdi,-0x8(%rbp)
    424c:	48 8b 45 f8          	mov    -0x8(%rbp),%rax
    4250:	48 89 c7             	mov    %rax,%rdi
    4253:	e8 cc ff ff ff       	callq  4224 <bli_obj_conj_status>
    4258:	83 f8 10             	cmp    $0x10,%eax
    425b:	0f 94 c0             	sete   %al
    425e:	c9                   	leaveq 
    425f:	c3                   	retq   

0000000000004260 <bli_obj_has_noconj>:
    4260:	f3 0f 1e fa          	endbr64 
    4264:	55                   	push   %rbp
    4265:	48 89 e5             	mov    %rsp,%rbp
    4268:	48 83 ec 08          	sub    $0x8,%rsp
    426c:	48 89 7d f8          	mov    %rdi,-0x8(%rbp)
    4270:	48 8b 45 f8          	mov    -0x8(%rbp),%rax
    4274:	48 89 c7             	mov    %rax,%rdi
    4277:	e8 a8 ff ff ff       	callq  4224 <bli_obj_conj_status>
    427c:	85 c0                	test   %eax,%eax
    427e:	0f 94 c0             	sete   %al
    4281:	c9                   	leaveq 
    4282:	c3                   	retq   

0000000000004283 <bli_obj_uplo>:
    4283:	f3 0f 1e fa          	endbr64 
    4287:	55                   	push   %rbp
    4288:	48 89 e5             	mov    %rsp,%rbp
    428b:	48 89 7d f8          	mov    %rdi,-0x8(%rbp)
    428f:	48 8b 45 f8          	mov    -0x8(%rbp),%rax
    4293:	8b 40 30             	mov    0x30(%rax),%eax
    4296:	25 e0 00 00 00       	and    $0xe0,%eax
    429b:	5d                   	pop    %rbp
    429c:	c3                   	retq   

000000000000429d <bli_obj_is_upper>:
    429d:	f3 0f 1e fa          	endbr64 
    42a1:	55                   	push   %rbp
    42a2:	48 89 e5             	mov    %rsp,%rbp
    42a5:	48 83 ec 08          	sub    $0x8,%rsp
    42a9:	48 89 7d f8          	mov    %rdi,-0x8(%rbp)
    42ad:	48 8b 45 f8          	mov    -0x8(%rbp),%rax
    42b1:	48 89 c7             	mov    %rax,%rdi
    42b4:	e8 ca ff ff ff       	callq  4283 <bli_obj_uplo>
    42b9:	83 f8 60             	cmp    $0x60,%eax
    42bc:	0f 94 c0             	sete   %al
    42bf:	c9                   	leaveq 
    42c0:	c3                   	retq   

00000000000042c1 <bli_obj_is_lower>:
    42c1:	f3 0f 1e fa          	endbr64 
    42c5:	55                   	push   %rbp
    42c6:	48 89 e5             	mov    %rsp,%rbp
    42c9:	48 83 ec 08          	sub    $0x8,%rsp
    42cd:	48 89 7d f8          	mov    %rdi,-0x8(%rbp)
    42d1:	48 8b 45 f8          	mov    -0x8(%rbp),%rax
    42d5:	48 89 c7             	mov    %rax,%rdi
    42d8:	e8 a6 ff ff ff       	callq  4283 <bli_obj_uplo>
    42dd:	3d c0 00 00 00       	cmp    $0xc0,%eax
    42e2:	0f 94 c0             	sete   %al
    42e5:	c9                   	leaveq 
    42e6:	c3                   	retq   

00000000000042e7 <bli_obj_is_upper_or_lower>:
    42e7:	f3 0f 1e fa          	endbr64 
    42eb:	55                   	push   %rbp
    42ec:	48 89 e5             	mov    %rsp,%rbp
    42ef:	48 83 ec 08          	sub    $0x8,%rsp
    42f3:	48 89 7d f8          	mov    %rdi,-0x8(%rbp)
    42f7:	48 8b 45 f8          	mov    -0x8(%rbp),%rax
    42fb:	48 89 c7             	mov    %rax,%rdi
    42fe:	e8 9a ff ff ff       	callq  429d <bli_obj_is_upper>
    4303:	84 c0                	test   %al,%al
    4305:	75 10                	jne    4317 <bli_obj_is_upper_or_lower+0x30>
    4307:	48 8b 45 f8          	mov    -0x8(%rbp),%rax
    430b:	48 89 c7             	mov    %rax,%rdi
    430e:	e8 ae ff ff ff       	callq  42c1 <bli_obj_is_lower>
    4313:	84 c0                	test   %al,%al
    4315:	74 07                	je     431e <bli_obj_is_upper_or_lower+0x37>
    4317:	b8 01 00 00 00       	mov    $0x1,%eax
    431c:	eb 05                	jmp    4323 <bli_obj_is_upper_or_lower+0x3c>
    431e:	b8 00 00 00 00       	mov    $0x0,%eax
    4323:	83 e0 01             	and    $0x1,%eax
    4326:	c9                   	leaveq 
    4327:	c3                   	retq   

0000000000004328 <bli_obj_is_dense>:
    4328:	f3 0f 1e fa          	endbr64 
    432c:	55                   	push   %rbp
    432d:	48 89 e5             	mov    %rsp,%rbp
    4330:	48 83 ec 08          	sub    $0x8,%rsp
    4334:	48 89 7d f8          	mov    %rdi,-0x8(%rbp)
    4338:	48 8b 45 f8          	mov    -0x8(%rbp),%rax
    433c:	48 89 c7             	mov    %rax,%rdi
    433f:	e8 3f ff ff ff       	callq  4283 <bli_obj_uplo>
    4344:	3d e0 00 00 00       	cmp    $0xe0,%eax
    4349:	0f 94 c0             	sete   %al
    434c:	c9                   	leaveq 
    434d:	c3                   	retq   

000000000000434e <bli_obj_is_zeros>:
    434e:	f3 0f 1e fa          	endbr64 
    4352:	55                   	push   %rbp
    4353:	48 89 e5             	mov    %rsp,%rbp
    4356:	48 83 ec 08          	sub    $0x8,%rsp
    435a:	48 89 7d f8          	mov    %rdi,-0x8(%rbp)
    435e:	48 8b 45 f8          	mov    -0x8(%rbp),%rax
    4362:	48 89 c7             	mov    %rax,%rdi
    4365:	e8 19 ff ff ff       	callq  4283 <bli_obj_uplo>
    436a:	85 c0                	test   %eax,%eax
    436c:	0f 94 c0             	sete   %al
    436f:	c9                   	leaveq 
    4370:	c3                   	retq   

0000000000004371 <bli_obj_diag>:
    4371:	f3 0f 1e fa          	endbr64 
    4375:	55                   	push   %rbp
    4376:	48 89 e5             	mov    %rsp,%rbp
    4379:	48 89 7d f8          	mov    %rdi,-0x8(%rbp)
    437d:	48 8b 45 f8          	mov    -0x8(%rbp),%rax
    4381:	8b 40 30             	mov    0x30(%rax),%eax
    4384:	25 00 01 00 00       	and    $0x100,%eax
    4389:	5d                   	pop    %rbp
    438a:	c3                   	retq   

000000000000438b <bli_obj_has_nonunit_diag>:
    438b:	f3 0f 1e fa          	endbr64 
    438f:	55                   	push   %rbp
    4390:	48 89 e5             	mov    %rsp,%rbp
    4393:	48 83 ec 08          	sub    $0x8,%rsp
    4397:	48 89 7d f8          	mov    %rdi,-0x8(%rbp)
    439b:	48 8b 45 f8          	mov    -0x8(%rbp),%rax
    439f:	48 89 c7             	mov    %rax,%rdi
    43a2:	e8 ca ff ff ff       	callq  4371 <bli_obj_diag>
    43a7:	85 c0                	test   %eax,%eax
    43a9:	0f 94 c0             	sete   %al
    43ac:	c9                   	leaveq 
    43ad:	c3                   	retq   

00000000000043ae <bli_obj_has_unit_diag>:
    43ae:	f3 0f 1e fa          	endbr64 
    43b2:	55                   	push   %rbp
    43b3:	48 89 e5             	mov    %rsp,%rbp
    43b6:	48 83 ec 08          	sub    $0x8,%rsp
    43ba:	48 89 7d f8          	mov    %rdi,-0x8(%rbp)
    43be:	48 8b 45 f8          	mov    -0x8(%rbp),%rax
    43c2:	48 89 c7             	mov    %rax,%rdi
    43c5:	e8 a7 ff ff ff       	callq  4371 <bli_obj_diag>
    43ca:	3d 00 01 00 00       	cmp    $0x100,%eax
    43cf:	0f 94 c0             	sete   %al
    43d2:	c9                   	leaveq 
    43d3:	c3                   	retq   

00000000000043d4 <bli_obj_has_inverted_diag>:
    43d4:	f3 0f 1e fa          	endbr64 
    43d8:	55                   	push   %rbp
    43d9:	48 89 e5             	mov    %rsp,%rbp
    43dc:	48 89 7d f8          	mov    %rdi,-0x8(%rbp)
    43e0:	48 8b 45 f8          	mov    -0x8(%rbp),%rax
    43e4:	8b 40 30             	mov    0x30(%rax),%eax
    43e7:	25 00 02 00 00       	and    $0x200,%eax
    43ec:	85 c0                	test   %eax,%eax
    43ee:	0f 95 c0             	setne  %al
    43f1:	5d                   	pop    %rbp
    43f2:	c3                   	retq   

00000000000043f3 <bli_obj_is_pack_rev_if_upper>:
    43f3:	f3 0f 1e fa          	endbr64 
    43f7:	55                   	push   %rbp
    43f8:	48 89 e5             	mov    %rsp,%rbp
    43fb:	48 89 7d f8          	mov    %rdi,-0x8(%rbp)
    43ff:	48 8b 45 f8          	mov    -0x8(%rbp),%rax
    4403:	8b 40 30             	mov    0x30(%rax),%eax
    4406:	25 00 00 80 00       	and    $0x800000,%eax
    440b:	85 c0                	test   %eax,%eax
    440d:	0f 95 c0             	setne  %al
    4410:	5d                   	pop    %rbp
    4411:	c3                   	retq   

0000000000004412 <bli_obj_is_pack_rev_if_lower>:
    4412:	f3 0f 1e fa          	endbr64 
    4416:	55                   	push   %rbp
    4417:	48 89 e5             	mov    %rsp,%rbp
    441a:	48 89 7d f8          	mov    %rdi,-0x8(%rbp)
    441e:	48 8b 45 f8          	mov    -0x8(%rbp),%rax
    4422:	8b 40 30             	mov    0x30(%rax),%eax
    4425:	25 00 00 00 01       	and    $0x1000000,%eax
    442a:	85 c0                	test   %eax,%eax
    442c:	0f 95 c0             	setne  %al
    442f:	5d                   	pop    %rbp
    4430:	c3                   	retq   

0000000000004431 <bli_obj_pack_schema>:
    4431:	f3 0f 1e fa          	endbr64 
    4435:	55                   	push   %rbp
    4436:	48 89 e5             	mov    %rsp,%rbp
    4439:	48 89 7d f8          	mov    %rdi,-0x8(%rbp)
    443d:	48 8b 45 f8          	mov    -0x8(%rbp),%rax
    4441:	8b 40 30             	mov    0x30(%rax),%eax
    4444:	25 00 00 7f 00       	and    $0x7f0000,%eax
    4449:	5d                   	pop    %rbp
    444a:	c3                   	retq   

000000000000444b <bli_obj_is_packed>:
    444b:	f3 0f 1e fa          	endbr64 
    444f:	55                   	push   %rbp
    4450:	48 89 e5             	mov    %rsp,%rbp
    4453:	48 89 7d f8          	mov    %rdi,-0x8(%rbp)
    4457:	48 8b 45 f8          	mov    -0x8(%rbp),%rax
    445b:	8b 40 30             	mov    0x30(%rax),%eax
    445e:	25 00 00 40 00       	and    $0x400000,%eax
    4463:	85 c0                	test   %eax,%eax
    4465:	0f 95 c0             	setne  %al
    4468:	5d                   	pop    %rbp
    4469:	c3                   	retq   

000000000000446a <bli_obj_is_row_packed>:
    446a:	f3 0f 1e fa          	endbr64 
    446e:	55                   	push   %rbp
    446f:	48 89 e5             	mov    %rsp,%rbp
    4472:	48 89 7d f8          	mov    %rdi,-0x8(%rbp)
    4476:	48 8b 45 f8          	mov    -0x8(%rbp),%rax
    447a:	8b 40 30             	mov    0x30(%rax),%eax
    447d:	25 00 00 01 00       	and    $0x10000,%eax
    4482:	85 c0                	test   %eax,%eax
    4484:	0f 94 c0             	sete   %al
    4487:	5d                   	pop    %rbp
    4488:	c3                   	retq   

0000000000004489 <bli_obj_is_col_packed>:
    4489:	f3 0f 1e fa          	endbr64 
    448d:	55                   	push   %rbp
    448e:	48 89 e5             	mov    %rsp,%rbp
    4491:	48 89 7d f8          	mov    %rdi,-0x8(%rbp)
    4495:	48 8b 45 f8          	mov    -0x8(%rbp),%rax
    4499:	8b 40 30             	mov    0x30(%rax),%eax
    449c:	25 00 00 01 00       	and    $0x10000,%eax
    44a1:	85 c0                	test   %eax,%eax
    44a3:	0f 95 c0             	setne  %al
    44a6:	5d                   	pop    %rbp
    44a7:	c3                   	retq   

00000000000044a8 <bli_obj_is_panel_packed>:
    44a8:	f3 0f 1e fa          	endbr64 
    44ac:	55                   	push   %rbp
    44ad:	48 89 e5             	mov    %rsp,%rbp
    44b0:	48 89 7d f8          	mov    %rdi,-0x8(%rbp)
    44b4:	48 8b 45 f8          	mov    -0x8(%rbp),%rax
    44b8:	8b 40 30             	mov    0x30(%rax),%eax
    44bb:	25 00 00 02 00       	and    $0x20000,%eax
    44c0:	85 c0                	test   %eax,%eax
    44c2:	0f 95 c0             	setne  %al
    44c5:	5d                   	pop    %rbp
    44c6:	c3                   	retq   

00000000000044c7 <bli_obj_pack_buffer_type>:
    44c7:	f3 0f 1e fa          	endbr64 
    44cb:	55                   	push   %rbp
    44cc:	48 89 e5             	mov    %rsp,%rbp
    44cf:	48 89 7d f8          	mov    %rdi,-0x8(%rbp)
    44d3:	48 8b 45 f8          	mov    -0x8(%rbp),%rax
    44d7:	8b 40 30             	mov    0x30(%rax),%eax
    44da:	25 00 00 00 06       	and    $0x6000000,%eax
    44df:	5d                   	pop    %rbp
    44e0:	c3                   	retq   

00000000000044e1 <bli_obj_struc>:
    44e1:	f3 0f 1e fa          	endbr64 
    44e5:	55                   	push   %rbp
    44e6:	48 89 e5             	mov    %rsp,%rbp
    44e9:	48 89 7d f8          	mov    %rdi,-0x8(%rbp)
    44ed:	48 8b 45 f8          	mov    -0x8(%rbp),%rax
    44f1:	8b 40 30             	mov    0x30(%rax),%eax
    44f4:	25 00 00 00 18       	and    $0x18000000,%eax
    44f9:	5d                   	pop    %rbp
    44fa:	c3                   	retq   

00000000000044fb <bli_obj_is_general>:
    44fb:	f3 0f 1e fa          	endbr64 
    44ff:	55                   	push   %rbp
    4500:	48 89 e5             	mov    %rsp,%rbp
    4503:	48 83 ec 08          	sub    $0x8,%rsp
    4507:	48 89 7d f8          	mov    %rdi,-0x8(%rbp)
    450b:	48 8b 45 f8          	mov    -0x8(%rbp),%rax
    450f:	48 89 c7             	mov    %rax,%rdi
    4512:	e8 ca ff ff ff       	callq  44e1 <bli_obj_struc>
    4517:	85 c0                	test   %eax,%eax
    4519:	0f 94 c0             	sete   %al
    451c:	c9                   	leaveq 
    451d:	c3                   	retq   

000000000000451e <bli_obj_is_hermitian>:
    451e:	f3 0f 1e fa          	endbr64 
    4522:	55                   	push   %rbp
    4523:	48 89 e5             	mov    %rsp,%rbp
    4526:	48 83 ec 08          	sub    $0x8,%rsp
    452a:	48 89 7d f8          	mov    %rdi,-0x8(%rbp)
    452e:	48 8b 45 f8          	mov    -0x8(%rbp),%rax
    4532:	48 89 c7             	mov    %rax,%rdi
    4535:	e8 a7 ff ff ff       	callq  44e1 <bli_obj_struc>
    453a:	3d 00 00 00 08       	cmp    $0x8000000,%eax
    453f:	0f 94 c0             	sete   %al
    4542:	c9                   	leaveq 
    4543:	c3                   	retq   

0000000000004544 <bli_obj_is_symmetric>:
    4544:	f3 0f 1e fa          	endbr64 
    4548:	55                   	push   %rbp
    4549:	48 89 e5             	mov    %rsp,%rbp
    454c:	48 83 ec 08          	sub    $0x8,%rsp
    4550:	48 89 7d f8          	mov    %rdi,-0x8(%rbp)
    4554:	48 8b 45 f8          	mov    -0x8(%rbp),%rax
    4558:	48 89 c7             	mov    %rax,%rdi
    455b:	e8 81 ff ff ff       	callq  44e1 <bli_obj_struc>
    4560:	3d 00 00 00 10       	cmp    $0x10000000,%eax
    4565:	0f 94 c0             	sete   %al
    4568:	c9                   	leaveq 
    4569:	c3                   	retq   

000000000000456a <bli_obj_is_triangular>:
    456a:	f3 0f 1e fa          	endbr64 
    456e:	55                   	push   %rbp
    456f:	48 89 e5             	mov    %rsp,%rbp
    4572:	48 83 ec 08          	sub    $0x8,%rsp
    4576:	48 89 7d f8          	mov    %rdi,-0x8(%rbp)
    457a:	48 8b 45 f8          	mov    -0x8(%rbp),%rax
    457e:	48 89 c7             	mov    %rax,%rdi
    4581:	e8 5b ff ff ff       	callq  44e1 <bli_obj_struc>
    4586:	3d 00 00 00 18       	cmp    $0x18000000,%eax
    458b:	0f 94 c0             	sete   %al
    458e:	c9                   	leaveq 
    458f:	c3                   	retq   

0000000000004590 <bli_obj_apply_trans>:
    4590:	f3 0f 1e fa          	endbr64 
    4594:	55                   	push   %rbp
    4595:	48 89 e5             	mov    %rsp,%rbp
    4598:	89 7d fc             	mov    %edi,-0x4(%rbp)
    459b:	48 89 75 f0          	mov    %rsi,-0x10(%rbp)
    459f:	48 8b 45 f0          	mov    -0x10(%rbp),%rax
    45a3:	8b 40 30             	mov    0x30(%rax),%eax
    45a6:	33 45 fc             	xor    -0x4(%rbp),%eax
    45a9:	89 c2                	mov    %eax,%edx
    45ab:	48 8b 45 f0          	mov    -0x10(%rbp),%rax
    45af:	89 50 30             	mov    %edx,0x30(%rax)
    45b2:	90                   	nop
    45b3:	5d                   	pop    %rbp
    45b4:	c3                   	retq   

00000000000045b5 <bli_obj_apply_conj>:
    45b5:	f3 0f 1e fa          	endbr64 
    45b9:	55                   	push   %rbp
    45ba:	48 89 e5             	mov    %rsp,%rbp
    45bd:	89 7d fc             	mov    %edi,-0x4(%rbp)
    45c0:	48 89 75 f0          	mov    %rsi,-0x10(%rbp)
    45c4:	48 8b 45 f0          	mov    -0x10(%rbp),%rax
    45c8:	8b 40 30             	mov    0x30(%rax),%eax
    45cb:	33 45 fc             	xor    -0x4(%rbp),%eax
    45ce:	89 c2                	mov    %eax,%edx
    45d0:	48 8b 45 f0          	mov    -0x10(%rbp),%rax
    45d4:	89 50 30             	mov    %edx,0x30(%rax)
    45d7:	90                   	nop
    45d8:	5d                   	pop    %rbp
    45d9:	c3                   	retq   

00000000000045da <bli_obj_set_conjtrans>:
    45da:	f3 0f 1e fa          	endbr64 
    45de:	55                   	push   %rbp
    45df:	48 89 e5             	mov    %rsp,%rbp
    45e2:	89 7d fc             	mov    %edi,-0x4(%rbp)
    45e5:	48 89 75 f0          	mov    %rsi,-0x10(%rbp)
    45e9:	48 8b 45 f0          	mov    -0x10(%rbp),%rax
    45ed:	8b 40 30             	mov    0x30(%rax),%eax
    45f0:	83 e0 e7             	and    $0xffffffe7,%eax
    45f3:	0b 45 fc             	or     -0x4(%rbp),%eax
    45f6:	89 c2                	mov    %eax,%edx
    45f8:	48 8b 45 f0          	mov    -0x10(%rbp),%rax
    45fc:	89 50 30             	mov    %edx,0x30(%rax)
    45ff:	90                   	nop
    4600:	5d                   	pop    %rbp
    4601:	c3                   	retq   

0000000000004602 <bli_obj_set_onlytrans>:
    4602:	f3 0f 1e fa          	endbr64 
    4606:	55                   	push   %rbp
    4607:	48 89 e5             	mov    %rsp,%rbp
    460a:	89 7d fc             	mov    %edi,-0x4(%rbp)
    460d:	48 89 75 f0          	mov    %rsi,-0x10(%rbp)
    4611:	48 8b 45 f0          	mov    -0x10(%rbp),%rax
    4615:	8b 40 30             	mov    0x30(%rax),%eax
    4618:	83 e0 f7             	and    $0xfffffff7,%eax
    461b:	0b 45 fc             	or     -0x4(%rbp),%eax
    461e:	89 c2                	mov    %eax,%edx
    4620:	48 8b 45 f0          	mov    -0x10(%rbp),%rax
    4624:	89 50 30             	mov    %edx,0x30(%rax)
    4627:	90                   	nop
    4628:	5d                   	pop    %rbp
    4629:	c3                   	retq   

000000000000462a <bli_obj_set_conj>:
    462a:	f3 0f 1e fa          	endbr64 
    462e:	55                   	push   %rbp
    462f:	48 89 e5             	mov    %rsp,%rbp
    4632:	89 7d fc             	mov    %edi,-0x4(%rbp)
    4635:	48 89 75 f0          	mov    %rsi,-0x10(%rbp)
    4639:	48 8b 45 f0          	mov    -0x10(%rbp),%rax
    463d:	8b 40 30             	mov    0x30(%rax),%eax
    4640:	83 e0 ef             	and    $0xffffffef,%eax
    4643:	0b 45 fc             	or     -0x4(%rbp),%eax
    4646:	89 c2                	mov    %eax,%edx
    4648:	48 8b 45 f0          	mov    -0x10(%rbp),%rax
    464c:	89 50 30             	mov    %edx,0x30(%rax)
    464f:	90                   	nop
    4650:	5d                   	pop    %rbp
    4651:	c3                   	retq   

0000000000004652 <bli_obj_set_uplo>:
    4652:	f3 0f 1e fa          	endbr64 
    4656:	55                   	push   %rbp
    4657:	48 89 e5             	mov    %rsp,%rbp
    465a:	89 7d fc             	mov    %edi,-0x4(%rbp)
    465d:	48 89 75 f0          	mov    %rsi,-0x10(%rbp)
    4661:	48 8b 45 f0          	mov    -0x10(%rbp),%rax
    4665:	8b 40 30             	mov    0x30(%rax),%eax
    4668:	24 1f                	and    $0x1f,%al
    466a:	0b 45 fc             	or     -0x4(%rbp),%eax
    466d:	89 c2                	mov    %eax,%edx
    466f:	48 8b 45 f0          	mov    -0x10(%rbp),%rax
    4673:	89 50 30             	mov    %edx,0x30(%rax)
    4676:	90                   	nop
    4677:	5d                   	pop    %rbp
    4678:	c3                   	retq   

0000000000004679 <bli_obj_set_diag>:
    4679:	f3 0f 1e fa          	endbr64 
    467d:	55                   	push   %rbp
    467e:	48 89 e5             	mov    %rsp,%rbp
    4681:	89 7d fc             	mov    %edi,-0x4(%rbp)
    4684:	48 89 75 f0          	mov    %rsi,-0x10(%rbp)
    4688:	48 8b 45 f0          	mov    -0x10(%rbp),%rax
    468c:	8b 40 30             	mov    0x30(%rax),%eax
    468f:	80 e4 fe             	and    $0xfe,%ah
    4692:	0b 45 fc             	or     -0x4(%rbp),%eax
    4695:	89 c2                	mov    %eax,%edx
    4697:	48 8b 45 f0          	mov    -0x10(%rbp),%rax
    469b:	89 50 30             	mov    %edx,0x30(%rax)
    469e:	90                   	nop
    469f:	5d                   	pop    %rbp
    46a0:	c3                   	retq   

00000000000046a1 <bli_obj_set_invert_diag>:
    46a1:	f3 0f 1e fa          	endbr64 
    46a5:	55                   	push   %rbp
    46a6:	48 89 e5             	mov    %rsp,%rbp
    46a9:	89 7d fc             	mov    %edi,-0x4(%rbp)
    46ac:	48 89 75 f0          	mov    %rsi,-0x10(%rbp)
    46b0:	48 8b 45 f0          	mov    -0x10(%rbp),%rax
    46b4:	8b 40 30             	mov    0x30(%rax),%eax
    46b7:	80 e4 fd             	and    $0xfd,%ah
    46ba:	0b 45 fc             	or     -0x4(%rbp),%eax
    46bd:	89 c2                	mov    %eax,%edx
    46bf:	48 8b 45 f0          	mov    -0x10(%rbp),%rax
    46c3:	89 50 30             	mov    %edx,0x30(%rax)
    46c6:	90                   	nop
    46c7:	5d                   	pop    %rbp
    46c8:	c3                   	retq   

00000000000046c9 <bli_obj_set_dt>:
    46c9:	f3 0f 1e fa          	endbr64 
    46cd:	55                   	push   %rbp
    46ce:	48 89 e5             	mov    %rsp,%rbp
    46d1:	89 7d fc             	mov    %edi,-0x4(%rbp)
    46d4:	48 89 75 f0          	mov    %rsi,-0x10(%rbp)
    46d8:	48 8b 45 f0          	mov    -0x10(%rbp),%rax
    46dc:	8b 40 30             	mov    0x30(%rax),%eax
    46df:	83 e0 f8             	and    $0xfffffff8,%eax
    46e2:	0b 45 fc             	or     -0x4(%rbp),%eax
    46e5:	89 c2                	mov    %eax,%edx
    46e7:	48 8b 45 f0          	mov    -0x10(%rbp),%rax
    46eb:	89 50 30             	mov    %edx,0x30(%rax)
    46ee:	90                   	nop
    46ef:	5d                   	pop    %rbp
    46f0:	c3                   	retq   

00000000000046f1 <bli_obj_set_target_dt>:
    46f1:	f3 0f 1e fa          	endbr64 
    46f5:	55                   	push   %rbp
    46f6:	48 89 e5             	mov    %rsp,%rbp
    46f9:	89 7d fc             	mov    %edi,-0x4(%rbp)
    46fc:	48 89 75 f0          	mov    %rsi,-0x10(%rbp)
    4700:	48 8b 45 f0          	mov    -0x10(%rbp),%rax
    4704:	8b 40 30             	mov    0x30(%rax),%eax
    4707:	80 e4 e3             	and    $0xe3,%ah
    470a:	89 c2                	mov    %eax,%edx
    470c:	8b 45 fc             	mov    -0x4(%rbp),%eax
    470f:	c1 e0 0a             	shl    $0xa,%eax
    4712:	09 c2                	or     %eax,%edx
    4714:	48 8b 45 f0          	mov    -0x10(%rbp),%rax
    4718:	89 50 30             	mov    %edx,0x30(%rax)
    471b:	90                   	nop
    471c:	5d                   	pop    %rbp
    471d:	c3                   	retq   

000000000000471e <bli_obj_set_target_domain>:
    471e:	f3 0f 1e fa          	endbr64 
    4722:	55                   	push   %rbp
    4723:	48 89 e5             	mov    %rsp,%rbp
    4726:	89 7d fc             	mov    %edi,-0x4(%rbp)
    4729:	48 89 75 f0          	mov    %rsi,-0x10(%rbp)
    472d:	48 8b 45 f0          	mov    -0x10(%rbp),%rax
    4731:	8b 40 30             	mov    0x30(%rax),%eax
    4734:	80 e4 fb             	and    $0xfb,%ah
    4737:	89 c2                	mov    %eax,%edx
    4739:	8b 45 fc             	mov    -0x4(%rbp),%eax
    473c:	c1 e0 0a             	shl    $0xa,%eax
    473f:	09 c2                	or     %eax,%edx
    4741:	48 8b 45 f0          	mov    -0x10(%rbp),%rax
    4745:	89 50 30             	mov    %edx,0x30(%rax)
    4748:	90                   	nop
    4749:	5d                   	pop    %rbp
    474a:	c3                   	retq   

000000000000474b <bli_obj_set_target_prec>:
    474b:	f3 0f 1e fa          	endbr64 
    474f:	55                   	push   %rbp
    4750:	48 89 e5             	mov    %rsp,%rbp
    4753:	89 7d fc             	mov    %edi,-0x4(%rbp)
    4756:	48 89 75 f0          	mov    %rsi,-0x10(%rbp)
    475a:	48 8b 45 f0          	mov    -0x10(%rbp),%rax
    475e:	8b 40 30             	mov    0x30(%rax),%eax
    4761:	80 e4 f7             	and    $0xf7,%ah
    4764:	89 c2                	mov    %eax,%edx
    4766:	8b 45 fc             	mov    -0x4(%rbp),%eax
    4769:	c1 e0 0a             	shl    $0xa,%eax
    476c:	09 c2                	or     %eax,%edx
    476e:	48 8b 45 f0          	mov    -0x10(%rbp),%rax
    4772:	89 50 30             	mov    %edx,0x30(%rax)
    4775:	90                   	nop
    4776:	5d                   	pop    %rbp
    4777:	c3                   	retq   

0000000000004778 <bli_obj_set_exec_dt>:
    4778:	f3 0f 1e fa          	endbr64 
    477c:	55                   	push   %rbp
    477d:	48 89 e5             	mov    %rsp,%rbp
    4780:	89 7d fc             	mov    %edi,-0x4(%rbp)
    4783:	48 89 75 f0          	mov    %rsi,-0x10(%rbp)
    4787:	48 8b 45 f0          	mov    -0x10(%rbp),%rax
    478b:	8b 40 30             	mov    0x30(%rax),%eax
    478e:	80 e4 1f             	and    $0x1f,%ah
    4791:	89 c2                	mov    %eax,%edx
    4793:	8b 45 fc             	mov    -0x4(%rbp),%eax
    4796:	c1 e0 0d             	shl    $0xd,%eax
    4799:	09 c2                	or     %eax,%edx
    479b:	48 8b 45 f0          	mov    -0x10(%rbp),%rax
    479f:	89 50 30             	mov    %edx,0x30(%rax)
    47a2:	90                   	nop
    47a3:	5d                   	pop    %rbp
    47a4:	c3                   	retq   

00000000000047a5 <bli_obj_set_exec_domain>:
    47a5:	f3 0f 1e fa          	endbr64 
    47a9:	55                   	push   %rbp
    47aa:	48 89 e5             	mov    %rsp,%rbp
    47ad:	89 7d fc             	mov    %edi,-0x4(%rbp)
    47b0:	48 89 75 f0          	mov    %rsi,-0x10(%rbp)
    47b4:	48 8b 45 f0          	mov    -0x10(%rbp),%rax
    47b8:	8b 40 30             	mov    0x30(%rax),%eax
    47bb:	80 e4 df             	and    $0xdf,%ah
    47be:	89 c2                	mov    %eax,%edx
    47c0:	8b 45 fc             	mov    -0x4(%rbp),%eax
    47c3:	c1 e0 0d             	shl    $0xd,%eax
    47c6:	09 c2                	or     %eax,%edx
    47c8:	48 8b 45 f0          	mov    -0x10(%rbp),%rax
    47cc:	89 50 30             	mov    %edx,0x30(%rax)
    47cf:	90                   	nop
    47d0:	5d                   	pop    %rbp
    47d1:	c3                   	retq   

00000000000047d2 <bli_obj_set_exec_prec>:
    47d2:	f3 0f 1e fa          	endbr64 
    47d6:	55                   	push   %rbp
    47d7:	48 89 e5             	mov    %rsp,%rbp
    47da:	89 7d fc             	mov    %edi,-0x4(%rbp)
    47dd:	48 89 75 f0          	mov    %rsi,-0x10(%rbp)
    47e1:	48 8b 45 f0          	mov    -0x10(%rbp),%rax
    47e5:	8b 40 30             	mov    0x30(%rax),%eax
    47e8:	80 e4 bf             	and    $0xbf,%ah
    47eb:	89 c2                	mov    %eax,%edx
    47ed:	8b 45 fc             	mov    -0x4(%rbp),%eax
    47f0:	c1 e0 0d             	shl    $0xd,%eax
    47f3:	09 c2                	or     %eax,%edx
    47f5:	48 8b 45 f0          	mov    -0x10(%rbp),%rax
    47f9:	89 50 30             	mov    %edx,0x30(%rax)
    47fc:	90                   	nop
    47fd:	5d                   	pop    %rbp
    47fe:	c3                   	retq   

00000000000047ff <bli_obj_set_comp_dt>:
    47ff:	f3 0f 1e fa          	endbr64 
    4803:	55                   	push   %rbp
    4804:	48 89 e5             	mov    %rsp,%rbp
    4807:	89 7d fc             	mov    %edi,-0x4(%rbp)
    480a:	48 89 75 f0          	mov    %rsi,-0x10(%rbp)
    480e:	48 8b 45 f0          	mov    -0x10(%rbp),%rax
    4812:	8b 40 30             	mov    0x30(%rax),%eax
    4815:	25 ff ff ff 1f       	and    $0x1fffffff,%eax
    481a:	89 c2                	mov    %eax,%edx
    481c:	8b 45 fc             	mov    -0x4(%rbp),%eax
    481f:	c1 e0 1d             	shl    $0x1d,%eax
    4822:	09 c2                	or     %eax,%edx
    4824:	48 8b 45 f0          	mov    -0x10(%rbp),%rax
    4828:	89 50 30             	mov    %edx,0x30(%rax)
    482b:	90                   	nop
    482c:	5d                   	pop    %rbp
    482d:	c3                   	retq   

000000000000482e <bli_obj_set_comp_domain>:
    482e:	f3 0f 1e fa          	endbr64 
    4832:	55                   	push   %rbp
    4833:	48 89 e5             	mov    %rsp,%rbp
    4836:	89 7d fc             	mov    %edi,-0x4(%rbp)
    4839:	48 89 75 f0          	mov    %rsi,-0x10(%rbp)
    483d:	48 8b 45 f0          	mov    -0x10(%rbp),%rax
    4841:	8b 40 30             	mov    0x30(%rax),%eax
    4844:	25 ff ff ff df       	and    $0xdfffffff,%eax
    4849:	89 c2                	mov    %eax,%edx
    484b:	8b 45 fc             	mov    -0x4(%rbp),%eax
    484e:	c1 e0 1d             	shl    $0x1d,%eax
    4851:	09 c2                	or     %eax,%edx
    4853:	48 8b 45 f0          	mov    -0x10(%rbp),%rax
    4857:	89 50 30             	mov    %edx,0x30(%rax)
    485a:	90                   	nop
    485b:	5d                   	pop    %rbp
    485c:	c3                   	retq   

000000000000485d <bli_obj_set_comp_prec>:
    485d:	f3 0f 1e fa          	endbr64 
    4861:	55                   	push   %rbp
    4862:	48 89 e5             	mov    %rsp,%rbp
    4865:	89 7d fc             	mov    %edi,-0x4(%rbp)
    4868:	48 89 75 f0          	mov    %rsi,-0x10(%rbp)
    486c:	48 8b 45 f0          	mov    -0x10(%rbp),%rax
    4870:	8b 40 30             	mov    0x30(%rax),%eax
    4873:	25 ff ff ff bf       	and    $0xbfffffff,%eax
    4878:	89 c2                	mov    %eax,%edx
    487a:	8b 45 fc             	mov    -0x4(%rbp),%eax
    487d:	c1 e0 1d             	shl    $0x1d,%eax
    4880:	09 c2                	or     %eax,%edx
    4882:	48 8b 45 f0          	mov    -0x10(%rbp),%rax
    4886:	89 50 30             	mov    %edx,0x30(%rax)
    4889:	90                   	nop
    488a:	5d                   	pop    %rbp
    488b:	c3                   	retq   

000000000000488c <bli_obj_set_scalar_dt>:
    488c:	f3 0f 1e fa          	endbr64 
    4890:	55                   	push   %rbp
    4891:	48 89 e5             	mov    %rsp,%rbp
    4894:	89 7d fc             	mov    %edi,-0x4(%rbp)
    4897:	48 89 75 f0          	mov    %rsi,-0x10(%rbp)
    489b:	48 8b 45 f0          	mov    -0x10(%rbp),%rax
    489f:	8b 40 34             	mov    0x34(%rax),%eax
    48a2:	83 e0 f8             	and    $0xfffffff8,%eax
    48a5:	0b 45 fc             	or     -0x4(%rbp),%eax
    48a8:	89 c2                	mov    %eax,%edx
    48aa:	48 8b 45 f0          	mov    -0x10(%rbp),%rax
    48ae:	89 50 34             	mov    %edx,0x34(%rax)
    48b1:	90                   	nop
    48b2:	5d                   	pop    %rbp
    48b3:	c3                   	retq   

00000000000048b4 <bli_obj_set_scalar_domain>:
    48b4:	f3 0f 1e fa          	endbr64 
    48b8:	55                   	push   %rbp
    48b9:	48 89 e5             	mov    %rsp,%rbp
    48bc:	89 7d fc             	mov    %edi,-0x4(%rbp)
    48bf:	48 89 75 f0          	mov    %rsi,-0x10(%rbp)
    48c3:	48 8b 45 f0          	mov    -0x10(%rbp),%rax
    48c7:	8b 40 34             	mov    0x34(%rax),%eax
    48ca:	83 e0 fe             	and    $0xfffffffe,%eax
    48cd:	0b 45 fc             	or     -0x4(%rbp),%eax
    48d0:	89 c2                	mov    %eax,%edx
    48d2:	48 8b 45 f0          	mov    -0x10(%rbp),%rax
    48d6:	89 50 34             	mov    %edx,0x34(%rax)
    48d9:	90                   	nop
    48da:	5d                   	pop    %rbp
    48db:	c3                   	retq   

00000000000048dc <bli_obj_set_scalar_prec>:
    48dc:	f3 0f 1e fa          	endbr64 
    48e0:	55                   	push   %rbp
    48e1:	48 89 e5             	mov    %rsp,%rbp
    48e4:	89 7d fc             	mov    %edi,-0x4(%rbp)
    48e7:	48 89 75 f0          	mov    %rsi,-0x10(%rbp)
    48eb:	48 8b 45 f0          	mov    -0x10(%rbp),%rax
    48ef:	8b 40 34             	mov    0x34(%rax),%eax
    48f2:	83 e0 fd             	and    $0xfffffffd,%eax
    48f5:	0b 45 fc             	or     -0x4(%rbp),%eax
    48f8:	89 c2                	mov    %eax,%edx
    48fa:	48 8b 45 f0          	mov    -0x10(%rbp),%rax
    48fe:	89 50 34             	mov    %edx,0x34(%rax)
    4901:	90                   	nop
    4902:	5d                   	pop    %rbp
    4903:	c3                   	retq   

0000000000004904 <bli_obj_set_pack_schema>:
    4904:	f3 0f 1e fa          	endbr64 
    4908:	55                   	push   %rbp
    4909:	48 89 e5             	mov    %rsp,%rbp
    490c:	89 7d fc             	mov    %edi,-0x4(%rbp)
    490f:	48 89 75 f0          	mov    %rsi,-0x10(%rbp)
    4913:	48 8b 45 f0          	mov    -0x10(%rbp),%rax
    4917:	8b 40 30             	mov    0x30(%rax),%eax
    491a:	25 ff ff 80 ff       	and    $0xff80ffff,%eax
    491f:	0b 45 fc             	or     -0x4(%rbp),%eax
    4922:	89 c2                	mov    %eax,%edx
    4924:	48 8b 45 f0          	mov    -0x10(%rbp),%rax
    4928:	89 50 30             	mov    %edx,0x30(%rax)
    492b:	90                   	nop
    492c:	5d                   	pop    %rbp
    492d:	c3                   	retq   

000000000000492e <bli_obj_set_pack_order_if_upper>:
    492e:	f3 0f 1e fa          	endbr64 
    4932:	55                   	push   %rbp
    4933:	48 89 e5             	mov    %rsp,%rbp
    4936:	89 7d fc             	mov    %edi,-0x4(%rbp)
    4939:	48 89 75 f0          	mov    %rsi,-0x10(%rbp)
    493d:	48 8b 45 f0          	mov    -0x10(%rbp),%rax
    4941:	8b 40 30             	mov    0x30(%rax),%eax
    4944:	25 ff ff 7f ff       	and    $0xff7fffff,%eax
    4949:	0b 45 fc             	or     -0x4(%rbp),%eax
    494c:	89 c2                	mov    %eax,%edx
    494e:	48 8b 45 f0          	mov    -0x10(%rbp),%rax
    4952:	89 50 30             	mov    %edx,0x30(%rax)
    4955:	90                   	nop
    4956:	5d                   	pop    %rbp
    4957:	c3                   	retq   

0000000000004958 <bli_obj_set_pack_order_if_lower>:
    4958:	f3 0f 1e fa          	endbr64 
    495c:	55                   	push   %rbp
    495d:	48 89 e5             	mov    %rsp,%rbp
    4960:	89 7d fc             	mov    %edi,-0x4(%rbp)
    4963:	48 89 75 f0          	mov    %rsi,-0x10(%rbp)
    4967:	48 8b 45 f0          	mov    -0x10(%rbp),%rax
    496b:	8b 40 30             	mov    0x30(%rax),%eax
    496e:	25 ff ff ff fe       	and    $0xfeffffff,%eax
    4973:	0b 45 fc             	or     -0x4(%rbp),%eax
    4976:	89 c2                	mov    %eax,%edx
    4978:	48 8b 45 f0          	mov    -0x10(%rbp),%rax
    497c:	89 50 30             	mov    %edx,0x30(%rax)
    497f:	90                   	nop
    4980:	5d                   	pop    %rbp
    4981:	c3                   	retq   

0000000000004982 <bli_obj_set_pack_buffer_type>:
    4982:	f3 0f 1e fa          	endbr64 
    4986:	55                   	push   %rbp
    4987:	48 89 e5             	mov    %rsp,%rbp
    498a:	89 7d fc             	mov    %edi,-0x4(%rbp)
    498d:	48 89 75 f0          	mov    %rsi,-0x10(%rbp)
    4991:	48 8b 45 f0          	mov    -0x10(%rbp),%rax
    4995:	8b 40 30             	mov    0x30(%rax),%eax
    4998:	25 ff ff ff f9       	and    $0xf9ffffff,%eax
    499d:	0b 45 fc             	or     -0x4(%rbp),%eax
    49a0:	89 c2                	mov    %eax,%edx
    49a2:	48 8b 45 f0          	mov    -0x10(%rbp),%rax
    49a6:	89 50 30             	mov    %edx,0x30(%rax)
    49a9:	90                   	nop
    49aa:	5d                   	pop    %rbp
    49ab:	c3                   	retq   

00000000000049ac <bli_obj_set_struc>:
    49ac:	f3 0f 1e fa          	endbr64 
    49b0:	55                   	push   %rbp
    49b1:	48 89 e5             	mov    %rsp,%rbp
    49b4:	89 7d fc             	mov    %edi,-0x4(%rbp)
    49b7:	48 89 75 f0          	mov    %rsi,-0x10(%rbp)
    49bb:	48 8b 45 f0          	mov    -0x10(%rbp),%rax
    49bf:	8b 40 30             	mov    0x30(%rax),%eax
    49c2:	25 ff ff ff e7       	and    $0xe7ffffff,%eax
    49c7:	0b 45 fc             	or     -0x4(%rbp),%eax
    49ca:	89 c2                	mov    %eax,%edx
    49cc:	48 8b 45 f0          	mov    -0x10(%rbp),%rax
    49d0:	89 50 30             	mov    %edx,0x30(%rax)
    49d3:	90                   	nop
    49d4:	5d                   	pop    %rbp
    49d5:	c3                   	retq   

00000000000049d6 <bli_obj_toggle_trans>:
    49d6:	f3 0f 1e fa          	endbr64 
    49da:	55                   	push   %rbp
    49db:	48 89 e5             	mov    %rsp,%rbp
    49de:	48 83 ec 08          	sub    $0x8,%rsp
    49e2:	48 89 7d f8          	mov    %rdi,-0x8(%rbp)
    49e6:	48 8b 45 f8          	mov    -0x8(%rbp),%rax
    49ea:	48 89 c6             	mov    %rax,%rsi
    49ed:	bf 08 00 00 00       	mov    $0x8,%edi
    49f2:	e8 99 fb ff ff       	callq  4590 <bli_obj_apply_trans>
    49f7:	90                   	nop
    49f8:	c9                   	leaveq 
    49f9:	c3                   	retq   

00000000000049fa <bli_obj_toggle_conj>:
